
serein-user/_usertests：     文件格式 elf64-littleriscv


Disassembly of section .text:

0000000000000000 <alarm_simple_handler>:
    } \
}

// Simple test helpers
static volatile int alarm_simple_received = 0;
static void alarm_simple_handler(int sig) { alarm_simple_received = 1; }
       0:	1141                	addi	sp,sp,-16
       2:	e422                	sd	s0,8(sp)
       4:	0800                	addi	s0,sp,16
       6:	4785                	li	a5,1
       8:	00010717          	auipc	a4,0x10
       c:	88f72023          	sw	a5,-1920(a4) # f888 <alarm_simple_received>
      10:	6422                	ld	s0,8(sp)
      12:	0141                	addi	sp,sp,16
      14:	8082                	ret

0000000000000016 <alarm_handler>:
#include "serein-user/user.h"

volatile int alarm_received = 0;

void alarm_handler(int sig)
{
      16:	1141                	addi	sp,sp,-16
      18:	e406                	sd	ra,8(sp)
      1a:	e022                	sd	s0,0(sp)
      1c:	0800                	addi	s0,sp,16
      1e:	85aa                	mv	a1,a0
    alarm_received = 1;
      20:	4785                	li	a5,1
      22:	00010717          	auipc	a4,0x10
      26:	86f72523          	sw	a5,-1942(a4) # f88c <alarm_received>
    printf("SIGALRM handler called! sig=%d\n", sig);
      2a:	00009517          	auipc	a0,0x9
      2e:	68650513          	addi	a0,a0,1670 # 96b0 <malloc+0xf0>
      32:	00009097          	auipc	ra,0x9
      36:	4d6080e7          	jalr	1238(ra) # 9508 <printf>
}
      3a:	60a2                	ld	ra,8(sp)
      3c:	6402                	ld	s0,0(sp)
      3e:	0141                	addi	sp,sp,16
      40:	8082                	ret

0000000000000042 <copyinstr1>:
{
      42:	1141                	addi	sp,sp,-16
      44:	e406                	sd	ra,8(sp)
      46:	e022                	sd	s0,0(sp)
      48:	0800                	addi	s0,sp,16
    int fd = open((char *)addr, O_CREATE|O_WRONLY);
      4a:	20100593          	li	a1,513
      4e:	4505                	li	a0,1
      50:	057e                	slli	a0,a0,0x1f
      52:	00009097          	auipc	ra,0x9
      56:	f76080e7          	jalr	-138(ra) # 8fc8 <open>
    if(fd >= 0){
      5a:	02055063          	bgez	a0,7a <copyinstr1+0x38>
    int fd = open((char *)addr, O_CREATE|O_WRONLY);
      5e:	20100593          	li	a1,513
      62:	557d                	li	a0,-1
      64:	00009097          	auipc	ra,0x9
      68:	f64080e7          	jalr	-156(ra) # 8fc8 <open>
    uint64 addr = addrs[ai];
      6c:	55fd                	li	a1,-1
    if(fd >= 0){
      6e:	00055863          	bgez	a0,7e <copyinstr1+0x3c>
}
      72:	60a2                	ld	ra,8(sp)
      74:	6402                	ld	s0,0(sp)
      76:	0141                	addi	sp,sp,16
      78:	8082                	ret
    uint64 addr = addrs[ai];
      7a:	4585                	li	a1,1
      7c:	05fe                	slli	a1,a1,0x1f
      printf("open(%p) returned %d, not -1\n", addr, fd);
      7e:	862a                	mv	a2,a0
      80:	00009517          	auipc	a0,0x9
      84:	65050513          	addi	a0,a0,1616 # 96d0 <malloc+0x110>
      88:	00009097          	auipc	ra,0x9
      8c:	480080e7          	jalr	1152(ra) # 9508 <printf>
      exit(1);
      90:	4505                	li	a0,1
      92:	00009097          	auipc	ra,0x9
      96:	ef6080e7          	jalr	-266(ra) # 8f88 <exit>

000000000000009a <bsstest>:
  for(i = 0; i < sizeof(uninit); i++){
      9a:	0001b797          	auipc	a5,0x1b
      9e:	91e78793          	addi	a5,a5,-1762 # 1a9b8 <uninit>
      a2:	0001d697          	auipc	a3,0x1d
      a6:	02668693          	addi	a3,a3,38 # 1d0c8 <buf>
    if(uninit[i] != '\0'){
      aa:	0007c703          	lbu	a4,0(a5)
      ae:	e709                	bnez	a4,b8 <bsstest+0x1e>
  for(i = 0; i < sizeof(uninit); i++){
      b0:	0785                	addi	a5,a5,1
      b2:	fed79ce3          	bne	a5,a3,aa <bsstest+0x10>
      b6:	8082                	ret
{
      b8:	1141                	addi	sp,sp,-16
      ba:	e406                	sd	ra,8(sp)
      bc:	e022                	sd	s0,0(sp)
      be:	0800                	addi	s0,sp,16
      printf("%s: bss test failed\n", s);
      c0:	85aa                	mv	a1,a0
      c2:	00009517          	auipc	a0,0x9
      c6:	62e50513          	addi	a0,a0,1582 # 96f0 <malloc+0x130>
      ca:	00009097          	auipc	ra,0x9
      ce:	43e080e7          	jalr	1086(ra) # 9508 <printf>
      exit(1);
      d2:	4505                	li	a0,1
      d4:	00009097          	auipc	ra,0x9
      d8:	eb4080e7          	jalr	-332(ra) # 8f88 <exit>

00000000000000dc <opentest>:
{
      dc:	1101                	addi	sp,sp,-32
      de:	ec06                	sd	ra,24(sp)
      e0:	e822                	sd	s0,16(sp)
      e2:	e426                	sd	s1,8(sp)
      e4:	1000                	addi	s0,sp,32
      e6:	84aa                	mv	s1,a0
  fd = open("echo", 0);
      e8:	4581                	li	a1,0
      ea:	00009517          	auipc	a0,0x9
      ee:	61e50513          	addi	a0,a0,1566 # 9708 <malloc+0x148>
      f2:	00009097          	auipc	ra,0x9
      f6:	ed6080e7          	jalr	-298(ra) # 8fc8 <open>
  if(fd < 0){
      fa:	02054663          	bltz	a0,126 <opentest+0x4a>
  close(fd);
      fe:	00009097          	auipc	ra,0x9
     102:	eb2080e7          	jalr	-334(ra) # 8fb0 <close>
  fd = open("doesnotexist", 0);
     106:	4581                	li	a1,0
     108:	00009517          	auipc	a0,0x9
     10c:	62050513          	addi	a0,a0,1568 # 9728 <malloc+0x168>
     110:	00009097          	auipc	ra,0x9
     114:	eb8080e7          	jalr	-328(ra) # 8fc8 <open>
  if(fd >= 0){
     118:	02055563          	bgez	a0,142 <opentest+0x66>
}
     11c:	60e2                	ld	ra,24(sp)
     11e:	6442                	ld	s0,16(sp)
     120:	64a2                	ld	s1,8(sp)
     122:	6105                	addi	sp,sp,32
     124:	8082                	ret
    printf("%s: open echo failed!\n", s);
     126:	85a6                	mv	a1,s1
     128:	00009517          	auipc	a0,0x9
     12c:	5e850513          	addi	a0,a0,1512 # 9710 <malloc+0x150>
     130:	00009097          	auipc	ra,0x9
     134:	3d8080e7          	jalr	984(ra) # 9508 <printf>
    exit(1);
     138:	4505                	li	a0,1
     13a:	00009097          	auipc	ra,0x9
     13e:	e4e080e7          	jalr	-434(ra) # 8f88 <exit>
    printf("%s: open doesnotexist succeeded!\n", s);
     142:	85a6                	mv	a1,s1
     144:	00009517          	auipc	a0,0x9
     148:	5f450513          	addi	a0,a0,1524 # 9738 <malloc+0x178>
     14c:	00009097          	auipc	ra,0x9
     150:	3bc080e7          	jalr	956(ra) # 9508 <printf>
    exit(1);
     154:	4505                	li	a0,1
     156:	00009097          	auipc	ra,0x9
     15a:	e32080e7          	jalr	-462(ra) # 8f88 <exit>

000000000000015e <truncate2>:
{
     15e:	7179                	addi	sp,sp,-48
     160:	f406                	sd	ra,40(sp)
     162:	f022                	sd	s0,32(sp)
     164:	ec26                	sd	s1,24(sp)
     166:	e84a                	sd	s2,16(sp)
     168:	e44e                	sd	s3,8(sp)
     16a:	1800                	addi	s0,sp,48
     16c:	89aa                	mv	s3,a0
  remove("truncfile");
     16e:	00009517          	auipc	a0,0x9
     172:	5f250513          	addi	a0,a0,1522 # 9760 <malloc+0x1a0>
     176:	00009097          	auipc	ra,0x9
     17a:	eba080e7          	jalr	-326(ra) # 9030 <remove>
  int fd1 = open("truncfile", O_CREATE|O_TRUNC|O_WRONLY);
     17e:	60100593          	li	a1,1537
     182:	00009517          	auipc	a0,0x9
     186:	5de50513          	addi	a0,a0,1502 # 9760 <malloc+0x1a0>
     18a:	00009097          	auipc	ra,0x9
     18e:	e3e080e7          	jalr	-450(ra) # 8fc8 <open>
     192:	84aa                	mv	s1,a0
  write(fd1, "abcd", 4);
     194:	4611                	li	a2,4
     196:	00009597          	auipc	a1,0x9
     19a:	5da58593          	addi	a1,a1,1498 # 9770 <malloc+0x1b0>
     19e:	00009097          	auipc	ra,0x9
     1a2:	e0a080e7          	jalr	-502(ra) # 8fa8 <write>
  int fd2 = open("truncfile", O_TRUNC|O_WRONLY);
     1a6:	40100593          	li	a1,1025
     1aa:	00009517          	auipc	a0,0x9
     1ae:	5b650513          	addi	a0,a0,1462 # 9760 <malloc+0x1a0>
     1b2:	00009097          	auipc	ra,0x9
     1b6:	e16080e7          	jalr	-490(ra) # 8fc8 <open>
     1ba:	892a                	mv	s2,a0
  int n = write(fd1, "x", 1);
     1bc:	4605                	li	a2,1
     1be:	00009597          	auipc	a1,0x9
     1c2:	5ba58593          	addi	a1,a1,1466 # 9778 <malloc+0x1b8>
     1c6:	8526                	mv	a0,s1
     1c8:	00009097          	auipc	ra,0x9
     1cc:	de0080e7          	jalr	-544(ra) # 8fa8 <write>
  if(n != -1){
     1d0:	57fd                	li	a5,-1
     1d2:	02f51b63          	bne	a0,a5,208 <truncate2+0xaa>
  remove("truncfile");
     1d6:	00009517          	auipc	a0,0x9
     1da:	58a50513          	addi	a0,a0,1418 # 9760 <malloc+0x1a0>
     1de:	00009097          	auipc	ra,0x9
     1e2:	e52080e7          	jalr	-430(ra) # 9030 <remove>
  close(fd1);
     1e6:	8526                	mv	a0,s1
     1e8:	00009097          	auipc	ra,0x9
     1ec:	dc8080e7          	jalr	-568(ra) # 8fb0 <close>
  close(fd2);
     1f0:	854a                	mv	a0,s2
     1f2:	00009097          	auipc	ra,0x9
     1f6:	dbe080e7          	jalr	-578(ra) # 8fb0 <close>
}
     1fa:	70a2                	ld	ra,40(sp)
     1fc:	7402                	ld	s0,32(sp)
     1fe:	64e2                	ld	s1,24(sp)
     200:	6942                	ld	s2,16(sp)
     202:	69a2                	ld	s3,8(sp)
     204:	6145                	addi	sp,sp,48
     206:	8082                	ret
    printf("%s: write returned %d, expected -1\n", s, n);
     208:	862a                	mv	a2,a0
     20a:	85ce                	mv	a1,s3
     20c:	00009517          	auipc	a0,0x9
     210:	57450513          	addi	a0,a0,1396 # 9780 <malloc+0x1c0>
     214:	00009097          	auipc	ra,0x9
     218:	2f4080e7          	jalr	756(ra) # 9508 <printf>
    exit(1);
     21c:	4505                	li	a0,1
     21e:	00009097          	auipc	ra,0x9
     222:	d6a080e7          	jalr	-662(ra) # 8f88 <exit>

0000000000000226 <createtest>:
{
     226:	7179                	addi	sp,sp,-48
     228:	f406                	sd	ra,40(sp)
     22a:	f022                	sd	s0,32(sp)
     22c:	ec26                	sd	s1,24(sp)
     22e:	e84a                	sd	s2,16(sp)
     230:	e44e                	sd	s3,8(sp)
     232:	e052                	sd	s4,0(sp)
     234:	1800                	addi	s0,sp,48
  name[0] = 'a';
     236:	0000f797          	auipc	a5,0xf
     23a:	65278793          	addi	a5,a5,1618 # f888 <alarm_simple_received>
     23e:	06100713          	li	a4,97
     242:	00e78423          	sb	a4,8(a5)
  name[2] = '\0';
     246:	00078523          	sb	zero,10(a5)
     24a:	03000493          	li	s1,48
    name[1] = '0' + i;
     24e:	8a3e                	mv	s4,a5
    fd = open(name, O_CREATE|O_RDWR);
     250:	0000f997          	auipc	s3,0xf
     254:	64098993          	addi	s3,s3,1600 # f890 <name>
  for(i = 0; i < N; i++){
     258:	06400913          	li	s2,100
    name[1] = '0' + i;
     25c:	009a04a3          	sb	s1,9(s4)
    fd = open(name, O_CREATE|O_RDWR);
     260:	20200593          	li	a1,514
     264:	854e                	mv	a0,s3
     266:	00009097          	auipc	ra,0x9
     26a:	d62080e7          	jalr	-670(ra) # 8fc8 <open>
    close(fd);
     26e:	00009097          	auipc	ra,0x9
     272:	d42080e7          	jalr	-702(ra) # 8fb0 <close>
  for(i = 0; i < N; i++){
     276:	2485                	addiw	s1,s1,1
     278:	0ff4f493          	zext.b	s1,s1
     27c:	ff2490e3          	bne	s1,s2,25c <createtest+0x36>
  name[0] = 'a';
     280:	0000f797          	auipc	a5,0xf
     284:	60878793          	addi	a5,a5,1544 # f888 <alarm_simple_received>
     288:	06100713          	li	a4,97
     28c:	00e78423          	sb	a4,8(a5)
  name[2] = '\0';
     290:	00078523          	sb	zero,10(a5)
     294:	03000493          	li	s1,48
    name[1] = '0' + i;
     298:	8a3e                	mv	s4,a5
    remove(name);
     29a:	0000f997          	auipc	s3,0xf
     29e:	5f698993          	addi	s3,s3,1526 # f890 <name>
  for(i = 0; i < N; i++){
     2a2:	06400913          	li	s2,100
    name[1] = '0' + i;
     2a6:	009a04a3          	sb	s1,9(s4)
    remove(name);
     2aa:	854e                	mv	a0,s3
     2ac:	00009097          	auipc	ra,0x9
     2b0:	d84080e7          	jalr	-636(ra) # 9030 <remove>
  for(i = 0; i < N; i++){
     2b4:	2485                	addiw	s1,s1,1
     2b6:	0ff4f493          	zext.b	s1,s1
     2ba:	ff2496e3          	bne	s1,s2,2a6 <createtest+0x80>
}
     2be:	70a2                	ld	ra,40(sp)
     2c0:	7402                	ld	s0,32(sp)
     2c2:	64e2                	ld	s1,24(sp)
     2c4:	6942                	ld	s2,16(sp)
     2c6:	69a2                	ld	s3,8(sp)
     2c8:	6a02                	ld	s4,0(sp)
     2ca:	6145                	addi	sp,sp,48
     2cc:	8082                	ret

00000000000002ce <bigwrite>:
{
     2ce:	715d                	addi	sp,sp,-80
     2d0:	e486                	sd	ra,72(sp)
     2d2:	e0a2                	sd	s0,64(sp)
     2d4:	fc26                	sd	s1,56(sp)
     2d6:	f84a                	sd	s2,48(sp)
     2d8:	f44e                	sd	s3,40(sp)
     2da:	f052                	sd	s4,32(sp)
     2dc:	ec56                	sd	s5,24(sp)
     2de:	e85a                	sd	s6,16(sp)
     2e0:	e45e                	sd	s7,8(sp)
     2e2:	0880                	addi	s0,sp,80
     2e4:	8baa                	mv	s7,a0
  remove("bigwrite");
     2e6:	00009517          	auipc	a0,0x9
     2ea:	4c250513          	addi	a0,a0,1218 # 97a8 <malloc+0x1e8>
     2ee:	00009097          	auipc	ra,0x9
     2f2:	d42080e7          	jalr	-702(ra) # 9030 <remove>
  for(sz = 499; sz < (MAXOPBLOCKS+2)*BSIZE; sz += 471){
     2f6:	1f300493          	li	s1,499
    fd = open("bigwrite", O_CREATE | O_RDWR);
     2fa:	00009a97          	auipc	s5,0x9
     2fe:	4aea8a93          	addi	s5,s5,1198 # 97a8 <malloc+0x1e8>
      int cc = write(fd, buf, sz);
     302:	0001da17          	auipc	s4,0x1d
     306:	dc6a0a13          	addi	s4,s4,-570 # 1d0c8 <buf>
  for(sz = 499; sz < (MAXOPBLOCKS+2)*BSIZE; sz += 471){
     30a:	6b09                	lui	s6,0x2
     30c:	807b0b13          	addi	s6,s6,-2041 # 1807 <exectest+0x179>
    fd = open("bigwrite", O_CREATE | O_RDWR);
     310:	20200593          	li	a1,514
     314:	8556                	mv	a0,s5
     316:	00009097          	auipc	ra,0x9
     31a:	cb2080e7          	jalr	-846(ra) # 8fc8 <open>
     31e:	892a                	mv	s2,a0
    if(fd < 0){
     320:	04054d63          	bltz	a0,37a <bigwrite+0xac>
      int cc = write(fd, buf, sz);
     324:	8626                	mv	a2,s1
     326:	85d2                	mv	a1,s4
     328:	00009097          	auipc	ra,0x9
     32c:	c80080e7          	jalr	-896(ra) # 8fa8 <write>
     330:	89aa                	mv	s3,a0
      if(cc != sz){
     332:	06a49263          	bne	s1,a0,396 <bigwrite+0xc8>
      int cc = write(fd, buf, sz);
     336:	8626                	mv	a2,s1
     338:	85d2                	mv	a1,s4
     33a:	854a                	mv	a0,s2
     33c:	00009097          	auipc	ra,0x9
     340:	c6c080e7          	jalr	-916(ra) # 8fa8 <write>
      if(cc != sz){
     344:	04951a63          	bne	a0,s1,398 <bigwrite+0xca>
    close(fd);
     348:	854a                	mv	a0,s2
     34a:	00009097          	auipc	ra,0x9
     34e:	c66080e7          	jalr	-922(ra) # 8fb0 <close>
    remove("bigwrite");
     352:	8556                	mv	a0,s5
     354:	00009097          	auipc	ra,0x9
     358:	cdc080e7          	jalr	-804(ra) # 9030 <remove>
  for(sz = 499; sz < (MAXOPBLOCKS+2)*BSIZE; sz += 471){
     35c:	1d74849b          	addiw	s1,s1,471
     360:	fb6498e3          	bne	s1,s6,310 <bigwrite+0x42>
}
     364:	60a6                	ld	ra,72(sp)
     366:	6406                	ld	s0,64(sp)
     368:	74e2                	ld	s1,56(sp)
     36a:	7942                	ld	s2,48(sp)
     36c:	79a2                	ld	s3,40(sp)
     36e:	7a02                	ld	s4,32(sp)
     370:	6ae2                	ld	s5,24(sp)
     372:	6b42                	ld	s6,16(sp)
     374:	6ba2                	ld	s7,8(sp)
     376:	6161                	addi	sp,sp,80
     378:	8082                	ret
      printf("%s: cannot create bigwrite\n", s);
     37a:	85de                	mv	a1,s7
     37c:	00009517          	auipc	a0,0x9
     380:	43c50513          	addi	a0,a0,1084 # 97b8 <malloc+0x1f8>
     384:	00009097          	auipc	ra,0x9
     388:	184080e7          	jalr	388(ra) # 9508 <printf>
      exit(1);
     38c:	4505                	li	a0,1
     38e:	00009097          	auipc	ra,0x9
     392:	bfa080e7          	jalr	-1030(ra) # 8f88 <exit>
      if(cc != sz){
     396:	89a6                	mv	s3,s1
        printf("%s: write(%d) ret %d\n", s, sz, cc);
     398:	86aa                	mv	a3,a0
     39a:	864e                	mv	a2,s3
     39c:	85de                	mv	a1,s7
     39e:	00009517          	auipc	a0,0x9
     3a2:	43a50513          	addi	a0,a0,1082 # 97d8 <malloc+0x218>
     3a6:	00009097          	auipc	ra,0x9
     3aa:	162080e7          	jalr	354(ra) # 9508 <printf>
        exit(1);
     3ae:	4505                	li	a0,1
     3b0:	00009097          	auipc	ra,0x9
     3b4:	bd8080e7          	jalr	-1064(ra) # 8f88 <exit>

00000000000003b8 <badwrite>:
{
     3b8:	7179                	addi	sp,sp,-48
     3ba:	f406                	sd	ra,40(sp)
     3bc:	f022                	sd	s0,32(sp)
     3be:	ec26                	sd	s1,24(sp)
     3c0:	e84a                	sd	s2,16(sp)
     3c2:	e44e                	sd	s3,8(sp)
     3c4:	e052                	sd	s4,0(sp)
     3c6:	1800                	addi	s0,sp,48
  remove("junk");
     3c8:	00009517          	auipc	a0,0x9
     3cc:	42850513          	addi	a0,a0,1064 # 97f0 <malloc+0x230>
     3d0:	00009097          	auipc	ra,0x9
     3d4:	c60080e7          	jalr	-928(ra) # 9030 <remove>
     3d8:	25800913          	li	s2,600
    int fd = open("junk", O_CREATE|O_WRONLY);
     3dc:	00009997          	auipc	s3,0x9
     3e0:	41498993          	addi	s3,s3,1044 # 97f0 <malloc+0x230>
    write(fd, (char*)0xffffffffffL, 1);
     3e4:	5a7d                	li	s4,-1
     3e6:	018a5a13          	srli	s4,s4,0x18
    int fd = open("junk", O_CREATE|O_WRONLY);
     3ea:	20100593          	li	a1,513
     3ee:	854e                	mv	a0,s3
     3f0:	00009097          	auipc	ra,0x9
     3f4:	bd8080e7          	jalr	-1064(ra) # 8fc8 <open>
     3f8:	84aa                	mv	s1,a0
    if(fd < 0){
     3fa:	06054b63          	bltz	a0,470 <badwrite+0xb8>
    write(fd, (char*)0xffffffffffL, 1);
     3fe:	4605                	li	a2,1
     400:	85d2                	mv	a1,s4
     402:	00009097          	auipc	ra,0x9
     406:	ba6080e7          	jalr	-1114(ra) # 8fa8 <write>
    close(fd);
     40a:	8526                	mv	a0,s1
     40c:	00009097          	auipc	ra,0x9
     410:	ba4080e7          	jalr	-1116(ra) # 8fb0 <close>
    remove("junk");
     414:	854e                	mv	a0,s3
     416:	00009097          	auipc	ra,0x9
     41a:	c1a080e7          	jalr	-998(ra) # 9030 <remove>
  for(int i = 0; i < assumed_free; i++){
     41e:	397d                	addiw	s2,s2,-1
     420:	fc0915e3          	bnez	s2,3ea <badwrite+0x32>
  int fd = open("junk", O_CREATE|O_WRONLY);
     424:	20100593          	li	a1,513
     428:	00009517          	auipc	a0,0x9
     42c:	3c850513          	addi	a0,a0,968 # 97f0 <malloc+0x230>
     430:	00009097          	auipc	ra,0x9
     434:	b98080e7          	jalr	-1128(ra) # 8fc8 <open>
     438:	84aa                	mv	s1,a0
  if(fd < 0){
     43a:	04054863          	bltz	a0,48a <badwrite+0xd2>
  if(write(fd, "x", 1) != 1){
     43e:	4605                	li	a2,1
     440:	00009597          	auipc	a1,0x9
     444:	33858593          	addi	a1,a1,824 # 9778 <malloc+0x1b8>
     448:	00009097          	auipc	ra,0x9
     44c:	b60080e7          	jalr	-1184(ra) # 8fa8 <write>
     450:	4785                	li	a5,1
     452:	04f50963          	beq	a0,a5,4a4 <badwrite+0xec>
    printf("write failed\n");
     456:	00009517          	auipc	a0,0x9
     45a:	3ba50513          	addi	a0,a0,954 # 9810 <malloc+0x250>
     45e:	00009097          	auipc	ra,0x9
     462:	0aa080e7          	jalr	170(ra) # 9508 <printf>
    exit(1);
     466:	4505                	li	a0,1
     468:	00009097          	auipc	ra,0x9
     46c:	b20080e7          	jalr	-1248(ra) # 8f88 <exit>
      printf("open junk failed\n");
     470:	00009517          	auipc	a0,0x9
     474:	38850513          	addi	a0,a0,904 # 97f8 <malloc+0x238>
     478:	00009097          	auipc	ra,0x9
     47c:	090080e7          	jalr	144(ra) # 9508 <printf>
      exit(1);
     480:	4505                	li	a0,1
     482:	00009097          	auipc	ra,0x9
     486:	b06080e7          	jalr	-1274(ra) # 8f88 <exit>
    printf("open junk failed\n");
     48a:	00009517          	auipc	a0,0x9
     48e:	36e50513          	addi	a0,a0,878 # 97f8 <malloc+0x238>
     492:	00009097          	auipc	ra,0x9
     496:	076080e7          	jalr	118(ra) # 9508 <printf>
    exit(1);
     49a:	4505                	li	a0,1
     49c:	00009097          	auipc	ra,0x9
     4a0:	aec080e7          	jalr	-1300(ra) # 8f88 <exit>
  close(fd);
     4a4:	8526                	mv	a0,s1
     4a6:	00009097          	auipc	ra,0x9
     4aa:	b0a080e7          	jalr	-1270(ra) # 8fb0 <close>
  remove("junk");
     4ae:	00009517          	auipc	a0,0x9
     4b2:	34250513          	addi	a0,a0,834 # 97f0 <malloc+0x230>
     4b6:	00009097          	auipc	ra,0x9
     4ba:	b7a080e7          	jalr	-1158(ra) # 9030 <remove>
  exit(0);
     4be:	4501                	li	a0,0
     4c0:	00009097          	auipc	ra,0x9
     4c4:	ac8080e7          	jalr	-1336(ra) # 8f88 <exit>

00000000000004c8 <copyin>:
{
     4c8:	7159                	addi	sp,sp,-112
     4ca:	f486                	sd	ra,104(sp)
     4cc:	f0a2                	sd	s0,96(sp)
     4ce:	eca6                	sd	s1,88(sp)
     4d0:	e8ca                	sd	s2,80(sp)
     4d2:	e4ce                	sd	s3,72(sp)
     4d4:	e0d2                	sd	s4,64(sp)
     4d6:	fc56                	sd	s5,56(sp)
     4d8:	1880                	addi	s0,sp,112
  uint64 addrs[] = { 0x80000000LL, 0xffffffffffffffff };
     4da:	4785                	li	a5,1
     4dc:	07fe                	slli	a5,a5,0x1f
     4de:	faf43823          	sd	a5,-80(s0)
     4e2:	57fd                	li	a5,-1
     4e4:	faf43c23          	sd	a5,-72(s0)
  for(int ai = 0; ai < 2; ai++){
     4e8:	fb040913          	addi	s2,s0,-80
     4ec:	fc040793          	addi	a5,s0,-64
     4f0:	f8f43c23          	sd	a5,-104(s0)
    int fd = open("copyin1", O_CREATE|O_WRONLY);
     4f4:	00009a17          	auipc	s4,0x9
     4f8:	32ca0a13          	addi	s4,s4,812 # 9820 <malloc+0x260>
    if(pipe(fds) < 0){
     4fc:	fa840a93          	addi	s5,s0,-88
    uint64 addr = addrs[ai];
     500:	00093983          	ld	s3,0(s2)
    int fd = open("copyin1", O_CREATE|O_WRONLY);
     504:	20100593          	li	a1,513
     508:	8552                	mv	a0,s4
     50a:	00009097          	auipc	ra,0x9
     50e:	abe080e7          	jalr	-1346(ra) # 8fc8 <open>
     512:	84aa                	mv	s1,a0
    if(fd < 0){
     514:	08054863          	bltz	a0,5a4 <copyin+0xdc>
    int n = write(fd, (void*)addr, 8192);
     518:	6609                	lui	a2,0x2
     51a:	85ce                	mv	a1,s3
     51c:	00009097          	auipc	ra,0x9
     520:	a8c080e7          	jalr	-1396(ra) # 8fa8 <write>
    if(n >= 0){
     524:	08055d63          	bgez	a0,5be <copyin+0xf6>
    close(fd);
     528:	8526                	mv	a0,s1
     52a:	00009097          	auipc	ra,0x9
     52e:	a86080e7          	jalr	-1402(ra) # 8fb0 <close>
    remove("copyin1");
     532:	8552                	mv	a0,s4
     534:	00009097          	auipc	ra,0x9
     538:	afc080e7          	jalr	-1284(ra) # 9030 <remove>
    n = write(1, (char*)addr, 8192);
     53c:	6609                	lui	a2,0x2
     53e:	85ce                	mv	a1,s3
     540:	4505                	li	a0,1
     542:	00009097          	auipc	ra,0x9
     546:	a66080e7          	jalr	-1434(ra) # 8fa8 <write>
    if(n > 0){
     54a:	08a04963          	bgtz	a0,5dc <copyin+0x114>
    if(pipe(fds) < 0){
     54e:	8556                	mv	a0,s5
     550:	00009097          	auipc	ra,0x9
     554:	a48080e7          	jalr	-1464(ra) # 8f98 <pipe>
     558:	0a054163          	bltz	a0,5fa <copyin+0x132>
    n = write(fds[1], (char*)addr, 8192);
     55c:	6609                	lui	a2,0x2
     55e:	85ce                	mv	a1,s3
     560:	fac42503          	lw	a0,-84(s0)
     564:	00009097          	auipc	ra,0x9
     568:	a44080e7          	jalr	-1468(ra) # 8fa8 <write>
    if(n > 0){
     56c:	0aa04463          	bgtz	a0,614 <copyin+0x14c>
    close(fds[0]);
     570:	fa842503          	lw	a0,-88(s0)
     574:	00009097          	auipc	ra,0x9
     578:	a3c080e7          	jalr	-1476(ra) # 8fb0 <close>
    close(fds[1]);
     57c:	fac42503          	lw	a0,-84(s0)
     580:	00009097          	auipc	ra,0x9
     584:	a30080e7          	jalr	-1488(ra) # 8fb0 <close>
  for(int ai = 0; ai < 2; ai++){
     588:	0921                	addi	s2,s2,8
     58a:	f9843783          	ld	a5,-104(s0)
     58e:	f6f919e3          	bne	s2,a5,500 <copyin+0x38>
}
     592:	70a6                	ld	ra,104(sp)
     594:	7406                	ld	s0,96(sp)
     596:	64e6                	ld	s1,88(sp)
     598:	6946                	ld	s2,80(sp)
     59a:	69a6                	ld	s3,72(sp)
     59c:	6a06                	ld	s4,64(sp)
     59e:	7ae2                	ld	s5,56(sp)
     5a0:	6165                	addi	sp,sp,112
     5a2:	8082                	ret
      printf("open(copyin1) failed\n");
     5a4:	00009517          	auipc	a0,0x9
     5a8:	28450513          	addi	a0,a0,644 # 9828 <malloc+0x268>
     5ac:	00009097          	auipc	ra,0x9
     5b0:	f5c080e7          	jalr	-164(ra) # 9508 <printf>
      exit(1);
     5b4:	4505                	li	a0,1
     5b6:	00009097          	auipc	ra,0x9
     5ba:	9d2080e7          	jalr	-1582(ra) # 8f88 <exit>
      printf("write(fd, %p, 8192) returned %d, not -1\n", addr, n);
     5be:	862a                	mv	a2,a0
     5c0:	85ce                	mv	a1,s3
     5c2:	00009517          	auipc	a0,0x9
     5c6:	27e50513          	addi	a0,a0,638 # 9840 <malloc+0x280>
     5ca:	00009097          	auipc	ra,0x9
     5ce:	f3e080e7          	jalr	-194(ra) # 9508 <printf>
      exit(1);
     5d2:	4505                	li	a0,1
     5d4:	00009097          	auipc	ra,0x9
     5d8:	9b4080e7          	jalr	-1612(ra) # 8f88 <exit>
      printf("write(1, %p, 8192) returned %d, not -1 or 0\n", addr, n);
     5dc:	862a                	mv	a2,a0
     5de:	85ce                	mv	a1,s3
     5e0:	00009517          	auipc	a0,0x9
     5e4:	29050513          	addi	a0,a0,656 # 9870 <malloc+0x2b0>
     5e8:	00009097          	auipc	ra,0x9
     5ec:	f20080e7          	jalr	-224(ra) # 9508 <printf>
      exit(1);
     5f0:	4505                	li	a0,1
     5f2:	00009097          	auipc	ra,0x9
     5f6:	996080e7          	jalr	-1642(ra) # 8f88 <exit>
      printf("pipe() failed\n");
     5fa:	00009517          	auipc	a0,0x9
     5fe:	2a650513          	addi	a0,a0,678 # 98a0 <malloc+0x2e0>
     602:	00009097          	auipc	ra,0x9
     606:	f06080e7          	jalr	-250(ra) # 9508 <printf>
      exit(1);
     60a:	4505                	li	a0,1
     60c:	00009097          	auipc	ra,0x9
     610:	97c080e7          	jalr	-1668(ra) # 8f88 <exit>
      printf("write(pipe, %p, 8192) returned %d, not -1 or 0\n", addr, n);
     614:	862a                	mv	a2,a0
     616:	85ce                	mv	a1,s3
     618:	00009517          	auipc	a0,0x9
     61c:	29850513          	addi	a0,a0,664 # 98b0 <malloc+0x2f0>
     620:	00009097          	auipc	ra,0x9
     624:	ee8080e7          	jalr	-280(ra) # 9508 <printf>
      exit(1);
     628:	4505                	li	a0,1
     62a:	00009097          	auipc	ra,0x9
     62e:	95e080e7          	jalr	-1698(ra) # 8f88 <exit>

0000000000000632 <copyout>:
{
     632:	7159                	addi	sp,sp,-112
     634:	f486                	sd	ra,104(sp)
     636:	f0a2                	sd	s0,96(sp)
     638:	eca6                	sd	s1,88(sp)
     63a:	e8ca                	sd	s2,80(sp)
     63c:	e4ce                	sd	s3,72(sp)
     63e:	e0d2                	sd	s4,64(sp)
     640:	fc56                	sd	s5,56(sp)
     642:	f85a                	sd	s6,48(sp)
     644:	1880                	addi	s0,sp,112
  uint64 addrs[] = { 0x80000000LL, 0xffffffffffffffff };
     646:	4785                	li	a5,1
     648:	07fe                	slli	a5,a5,0x1f
     64a:	faf43823          	sd	a5,-80(s0)
     64e:	57fd                	li	a5,-1
     650:	faf43c23          	sd	a5,-72(s0)
  for(int ai = 0; ai < 2; ai++){
     654:	fb040913          	addi	s2,s0,-80
     658:	fc040793          	addi	a5,s0,-64
     65c:	f8f43c23          	sd	a5,-104(s0)
    int fd = open("README", 0);
     660:	00009a97          	auipc	s5,0x9
     664:	280a8a93          	addi	s5,s5,640 # 98e0 <malloc+0x320>
    if(pipe(fds) < 0){
     668:	fa840a13          	addi	s4,s0,-88
    n = write(fds[1], "x", 1);
     66c:	00009b17          	auipc	s6,0x9
     670:	10cb0b13          	addi	s6,s6,268 # 9778 <malloc+0x1b8>
    uint64 addr = addrs[ai];
     674:	00093983          	ld	s3,0(s2)
    int fd = open("README", 0);
     678:	4581                	li	a1,0
     67a:	8556                	mv	a0,s5
     67c:	00009097          	auipc	ra,0x9
     680:	94c080e7          	jalr	-1716(ra) # 8fc8 <open>
     684:	84aa                	mv	s1,a0
    if(fd < 0){
     686:	08054663          	bltz	a0,712 <copyout+0xe0>
    int n = read(fd, (void*)addr, 8192);
     68a:	6609                	lui	a2,0x2
     68c:	85ce                	mv	a1,s3
     68e:	00009097          	auipc	ra,0x9
     692:	912080e7          	jalr	-1774(ra) # 8fa0 <read>
    if(n > 0){
     696:	08a04b63          	bgtz	a0,72c <copyout+0xfa>
    close(fd);
     69a:	8526                	mv	a0,s1
     69c:	00009097          	auipc	ra,0x9
     6a0:	914080e7          	jalr	-1772(ra) # 8fb0 <close>
    if(pipe(fds) < 0){
     6a4:	8552                	mv	a0,s4
     6a6:	00009097          	auipc	ra,0x9
     6aa:	8f2080e7          	jalr	-1806(ra) # 8f98 <pipe>
     6ae:	08054e63          	bltz	a0,74a <copyout+0x118>
    n = write(fds[1], "x", 1);
     6b2:	4605                	li	a2,1
     6b4:	85da                	mv	a1,s6
     6b6:	fac42503          	lw	a0,-84(s0)
     6ba:	00009097          	auipc	ra,0x9
     6be:	8ee080e7          	jalr	-1810(ra) # 8fa8 <write>
    if(n != 1){
     6c2:	4785                	li	a5,1
     6c4:	0af51063          	bne	a0,a5,764 <copyout+0x132>
    n = read(fds[0], (void*)addr, 8192);
     6c8:	6609                	lui	a2,0x2
     6ca:	85ce                	mv	a1,s3
     6cc:	fa842503          	lw	a0,-88(s0)
     6d0:	00009097          	auipc	ra,0x9
     6d4:	8d0080e7          	jalr	-1840(ra) # 8fa0 <read>
    if(n > 0){
     6d8:	0aa04363          	bgtz	a0,77e <copyout+0x14c>
    close(fds[0]);
     6dc:	fa842503          	lw	a0,-88(s0)
     6e0:	00009097          	auipc	ra,0x9
     6e4:	8d0080e7          	jalr	-1840(ra) # 8fb0 <close>
    close(fds[1]);
     6e8:	fac42503          	lw	a0,-84(s0)
     6ec:	00009097          	auipc	ra,0x9
     6f0:	8c4080e7          	jalr	-1852(ra) # 8fb0 <close>
  for(int ai = 0; ai < 2; ai++){
     6f4:	0921                	addi	s2,s2,8
     6f6:	f9843783          	ld	a5,-104(s0)
     6fa:	f6f91de3          	bne	s2,a5,674 <copyout+0x42>
}
     6fe:	70a6                	ld	ra,104(sp)
     700:	7406                	ld	s0,96(sp)
     702:	64e6                	ld	s1,88(sp)
     704:	6946                	ld	s2,80(sp)
     706:	69a6                	ld	s3,72(sp)
     708:	6a06                	ld	s4,64(sp)
     70a:	7ae2                	ld	s5,56(sp)
     70c:	7b42                	ld	s6,48(sp)
     70e:	6165                	addi	sp,sp,112
     710:	8082                	ret
      printf("open(README) failed\n");
     712:	00009517          	auipc	a0,0x9
     716:	1d650513          	addi	a0,a0,470 # 98e8 <malloc+0x328>
     71a:	00009097          	auipc	ra,0x9
     71e:	dee080e7          	jalr	-530(ra) # 9508 <printf>
      exit(1);
     722:	4505                	li	a0,1
     724:	00009097          	auipc	ra,0x9
     728:	864080e7          	jalr	-1948(ra) # 8f88 <exit>
      printf("read(fd, %p, 8192) returned %d, not -1 or 0\n", addr, n);
     72c:	862a                	mv	a2,a0
     72e:	85ce                	mv	a1,s3
     730:	00009517          	auipc	a0,0x9
     734:	1d050513          	addi	a0,a0,464 # 9900 <malloc+0x340>
     738:	00009097          	auipc	ra,0x9
     73c:	dd0080e7          	jalr	-560(ra) # 9508 <printf>
      exit(1);
     740:	4505                	li	a0,1
     742:	00009097          	auipc	ra,0x9
     746:	846080e7          	jalr	-1978(ra) # 8f88 <exit>
      printf("pipe() failed\n");
     74a:	00009517          	auipc	a0,0x9
     74e:	15650513          	addi	a0,a0,342 # 98a0 <malloc+0x2e0>
     752:	00009097          	auipc	ra,0x9
     756:	db6080e7          	jalr	-586(ra) # 9508 <printf>
      exit(1);
     75a:	4505                	li	a0,1
     75c:	00009097          	auipc	ra,0x9
     760:	82c080e7          	jalr	-2004(ra) # 8f88 <exit>
      printf("pipe write failed\n");
     764:	00009517          	auipc	a0,0x9
     768:	1cc50513          	addi	a0,a0,460 # 9930 <malloc+0x370>
     76c:	00009097          	auipc	ra,0x9
     770:	d9c080e7          	jalr	-612(ra) # 9508 <printf>
      exit(1);
     774:	4505                	li	a0,1
     776:	00009097          	auipc	ra,0x9
     77a:	812080e7          	jalr	-2030(ra) # 8f88 <exit>
      printf("read(pipe, %p, 8192) returned %d, not -1 or 0\n", addr, n);
     77e:	862a                	mv	a2,a0
     780:	85ce                	mv	a1,s3
     782:	00009517          	auipc	a0,0x9
     786:	1c650513          	addi	a0,a0,454 # 9948 <malloc+0x388>
     78a:	00009097          	auipc	ra,0x9
     78e:	d7e080e7          	jalr	-642(ra) # 9508 <printf>
      exit(1);
     792:	4505                	li	a0,1
     794:	00008097          	auipc	ra,0x8
     798:	7f4080e7          	jalr	2036(ra) # 8f88 <exit>

000000000000079c <truncate1>:
{
     79c:	711d                	addi	sp,sp,-96
     79e:	ec86                	sd	ra,88(sp)
     7a0:	e8a2                	sd	s0,80(sp)
     7a2:	e4a6                	sd	s1,72(sp)
     7a4:	e0ca                	sd	s2,64(sp)
     7a6:	fc4e                	sd	s3,56(sp)
     7a8:	f852                	sd	s4,48(sp)
     7aa:	f456                	sd	s5,40(sp)
     7ac:	1080                	addi	s0,sp,96
     7ae:	8aaa                	mv	s5,a0
  remove("truncfile");
     7b0:	00009517          	auipc	a0,0x9
     7b4:	fb050513          	addi	a0,a0,-80 # 9760 <malloc+0x1a0>
     7b8:	00009097          	auipc	ra,0x9
     7bc:	878080e7          	jalr	-1928(ra) # 9030 <remove>
  int fd1 = open("truncfile", O_CREATE|O_WRONLY|O_TRUNC);
     7c0:	60100593          	li	a1,1537
     7c4:	00009517          	auipc	a0,0x9
     7c8:	f9c50513          	addi	a0,a0,-100 # 9760 <malloc+0x1a0>
     7cc:	00008097          	auipc	ra,0x8
     7d0:	7fc080e7          	jalr	2044(ra) # 8fc8 <open>
     7d4:	84aa                	mv	s1,a0
  write(fd1, "abcd", 4);
     7d6:	4611                	li	a2,4
     7d8:	00009597          	auipc	a1,0x9
     7dc:	f9858593          	addi	a1,a1,-104 # 9770 <malloc+0x1b0>
     7e0:	00008097          	auipc	ra,0x8
     7e4:	7c8080e7          	jalr	1992(ra) # 8fa8 <write>
  close(fd1);
     7e8:	8526                	mv	a0,s1
     7ea:	00008097          	auipc	ra,0x8
     7ee:	7c6080e7          	jalr	1990(ra) # 8fb0 <close>
  int fd2 = open("truncfile", O_RDONLY);
     7f2:	4581                	li	a1,0
     7f4:	00009517          	auipc	a0,0x9
     7f8:	f6c50513          	addi	a0,a0,-148 # 9760 <malloc+0x1a0>
     7fc:	00008097          	auipc	ra,0x8
     800:	7cc080e7          	jalr	1996(ra) # 8fc8 <open>
     804:	84aa                	mv	s1,a0
  int n = read(fd2, buf, sizeof(buf));
     806:	02000613          	li	a2,32
     80a:	fa040593          	addi	a1,s0,-96
     80e:	00008097          	auipc	ra,0x8
     812:	792080e7          	jalr	1938(ra) # 8fa0 <read>
  if(n != 4){
     816:	4791                	li	a5,4
     818:	0cf51e63          	bne	a0,a5,8f4 <truncate1+0x158>
  fd1 = open("truncfile", O_WRONLY|O_TRUNC);
     81c:	40100593          	li	a1,1025
     820:	00009517          	auipc	a0,0x9
     824:	f4050513          	addi	a0,a0,-192 # 9760 <malloc+0x1a0>
     828:	00008097          	auipc	ra,0x8
     82c:	7a0080e7          	jalr	1952(ra) # 8fc8 <open>
     830:	89aa                	mv	s3,a0
  int fd3 = open("truncfile", O_RDONLY);
     832:	4581                	li	a1,0
     834:	00009517          	auipc	a0,0x9
     838:	f2c50513          	addi	a0,a0,-212 # 9760 <malloc+0x1a0>
     83c:	00008097          	auipc	ra,0x8
     840:	78c080e7          	jalr	1932(ra) # 8fc8 <open>
     844:	892a                	mv	s2,a0
  n = read(fd3, buf, sizeof(buf));
     846:	02000613          	li	a2,32
     84a:	fa040593          	addi	a1,s0,-96
     84e:	00008097          	auipc	ra,0x8
     852:	752080e7          	jalr	1874(ra) # 8fa0 <read>
     856:	8a2a                	mv	s4,a0
  if(n != 0){
     858:	ed4d                	bnez	a0,912 <truncate1+0x176>
  n = read(fd2, buf, sizeof(buf));
     85a:	02000613          	li	a2,32
     85e:	fa040593          	addi	a1,s0,-96
     862:	8526                	mv	a0,s1
     864:	00008097          	auipc	ra,0x8
     868:	73c080e7          	jalr	1852(ra) # 8fa0 <read>
     86c:	8a2a                	mv	s4,a0
  if(n != 0){
     86e:	e971                	bnez	a0,942 <truncate1+0x1a6>
  write(fd1, "abcdef", 6);
     870:	4619                	li	a2,6
     872:	00009597          	auipc	a1,0x9
     876:	16658593          	addi	a1,a1,358 # 99d8 <malloc+0x418>
     87a:	854e                	mv	a0,s3
     87c:	00008097          	auipc	ra,0x8
     880:	72c080e7          	jalr	1836(ra) # 8fa8 <write>
  n = read(fd3, buf, sizeof(buf));
     884:	02000613          	li	a2,32
     888:	fa040593          	addi	a1,s0,-96
     88c:	854a                	mv	a0,s2
     88e:	00008097          	auipc	ra,0x8
     892:	712080e7          	jalr	1810(ra) # 8fa0 <read>
  if(n != 6){
     896:	4799                	li	a5,6
     898:	0cf51d63          	bne	a0,a5,972 <truncate1+0x1d6>
  n = read(fd2, buf, sizeof(buf));
     89c:	02000613          	li	a2,32
     8a0:	fa040593          	addi	a1,s0,-96
     8a4:	8526                	mv	a0,s1
     8a6:	00008097          	auipc	ra,0x8
     8aa:	6fa080e7          	jalr	1786(ra) # 8fa0 <read>
  if(n != 2){
     8ae:	4789                	li	a5,2
     8b0:	0ef51063          	bne	a0,a5,990 <truncate1+0x1f4>
  remove("truncfile");
     8b4:	00009517          	auipc	a0,0x9
     8b8:	eac50513          	addi	a0,a0,-340 # 9760 <malloc+0x1a0>
     8bc:	00008097          	auipc	ra,0x8
     8c0:	774080e7          	jalr	1908(ra) # 9030 <remove>
  close(fd1);
     8c4:	854e                	mv	a0,s3
     8c6:	00008097          	auipc	ra,0x8
     8ca:	6ea080e7          	jalr	1770(ra) # 8fb0 <close>
  close(fd2);
     8ce:	8526                	mv	a0,s1
     8d0:	00008097          	auipc	ra,0x8
     8d4:	6e0080e7          	jalr	1760(ra) # 8fb0 <close>
  close(fd3);
     8d8:	854a                	mv	a0,s2
     8da:	00008097          	auipc	ra,0x8
     8de:	6d6080e7          	jalr	1750(ra) # 8fb0 <close>
}
     8e2:	60e6                	ld	ra,88(sp)
     8e4:	6446                	ld	s0,80(sp)
     8e6:	64a6                	ld	s1,72(sp)
     8e8:	6906                	ld	s2,64(sp)
     8ea:	79e2                	ld	s3,56(sp)
     8ec:	7a42                	ld	s4,48(sp)
     8ee:	7aa2                	ld	s5,40(sp)
     8f0:	6125                	addi	sp,sp,96
     8f2:	8082                	ret
    printf("%s: read %d bytes, wanted 4\n", s, n);
     8f4:	862a                	mv	a2,a0
     8f6:	85d6                	mv	a1,s5
     8f8:	00009517          	auipc	a0,0x9
     8fc:	08050513          	addi	a0,a0,128 # 9978 <malloc+0x3b8>
     900:	00009097          	auipc	ra,0x9
     904:	c08080e7          	jalr	-1016(ra) # 9508 <printf>
    exit(1);
     908:	4505                	li	a0,1
     90a:	00008097          	auipc	ra,0x8
     90e:	67e080e7          	jalr	1662(ra) # 8f88 <exit>
    printf("aaa fd3=%d\n", fd3);
     912:	85ca                	mv	a1,s2
     914:	00009517          	auipc	a0,0x9
     918:	08450513          	addi	a0,a0,132 # 9998 <malloc+0x3d8>
     91c:	00009097          	auipc	ra,0x9
     920:	bec080e7          	jalr	-1044(ra) # 9508 <printf>
    printf("%s: read %d bytes, wanted 0\n", s, n);
     924:	8652                	mv	a2,s4
     926:	85d6                	mv	a1,s5
     928:	00009517          	auipc	a0,0x9
     92c:	08050513          	addi	a0,a0,128 # 99a8 <malloc+0x3e8>
     930:	00009097          	auipc	ra,0x9
     934:	bd8080e7          	jalr	-1064(ra) # 9508 <printf>
    exit(1);
     938:	4505                	li	a0,1
     93a:	00008097          	auipc	ra,0x8
     93e:	64e080e7          	jalr	1614(ra) # 8f88 <exit>
    printf("bbb fd2=%d\n", fd2);
     942:	85a6                	mv	a1,s1
     944:	00009517          	auipc	a0,0x9
     948:	08450513          	addi	a0,a0,132 # 99c8 <malloc+0x408>
     94c:	00009097          	auipc	ra,0x9
     950:	bbc080e7          	jalr	-1092(ra) # 9508 <printf>
    printf("%s: read %d bytes, wanted 0\n", s, n);
     954:	8652                	mv	a2,s4
     956:	85d6                	mv	a1,s5
     958:	00009517          	auipc	a0,0x9
     95c:	05050513          	addi	a0,a0,80 # 99a8 <malloc+0x3e8>
     960:	00009097          	auipc	ra,0x9
     964:	ba8080e7          	jalr	-1112(ra) # 9508 <printf>
    exit(1);
     968:	4505                	li	a0,1
     96a:	00008097          	auipc	ra,0x8
     96e:	61e080e7          	jalr	1566(ra) # 8f88 <exit>
    printf("%s: read %d bytes, wanted 6\n", s, n);
     972:	862a                	mv	a2,a0
     974:	85d6                	mv	a1,s5
     976:	00009517          	auipc	a0,0x9
     97a:	06a50513          	addi	a0,a0,106 # 99e0 <malloc+0x420>
     97e:	00009097          	auipc	ra,0x9
     982:	b8a080e7          	jalr	-1142(ra) # 9508 <printf>
    exit(1);
     986:	4505                	li	a0,1
     988:	00008097          	auipc	ra,0x8
     98c:	600080e7          	jalr	1536(ra) # 8f88 <exit>
    printf("%s: read %d bytes, wanted 2\n", s, n);
     990:	862a                	mv	a2,a0
     992:	85d6                	mv	a1,s5
     994:	00009517          	auipc	a0,0x9
     998:	06c50513          	addi	a0,a0,108 # 9a00 <malloc+0x440>
     99c:	00009097          	auipc	ra,0x9
     9a0:	b6c080e7          	jalr	-1172(ra) # 9508 <printf>
    exit(1);
     9a4:	4505                	li	a0,1
     9a6:	00008097          	auipc	ra,0x8
     9aa:	5e2080e7          	jalr	1506(ra) # 8f88 <exit>

00000000000009ae <writetest>:
{
     9ae:	7139                	addi	sp,sp,-64
     9b0:	fc06                	sd	ra,56(sp)
     9b2:	f822                	sd	s0,48(sp)
     9b4:	f426                	sd	s1,40(sp)
     9b6:	f04a                	sd	s2,32(sp)
     9b8:	ec4e                	sd	s3,24(sp)
     9ba:	e852                	sd	s4,16(sp)
     9bc:	e456                	sd	s5,8(sp)
     9be:	e05a                	sd	s6,0(sp)
     9c0:	0080                	addi	s0,sp,64
     9c2:	8b2a                	mv	s6,a0
  fd = open("small", O_CREATE|O_RDWR);
     9c4:	20200593          	li	a1,514
     9c8:	00009517          	auipc	a0,0x9
     9cc:	05850513          	addi	a0,a0,88 # 9a20 <malloc+0x460>
     9d0:	00008097          	auipc	ra,0x8
     9d4:	5f8080e7          	jalr	1528(ra) # 8fc8 <open>
  if(fd < 0){
     9d8:	0a054d63          	bltz	a0,a92 <writetest+0xe4>
     9dc:	892a                	mv	s2,a0
     9de:	4481                	li	s1,0
    if(write(fd, "aaaaaaaaaa", SZ) != SZ){
     9e0:	00009997          	auipc	s3,0x9
     9e4:	06898993          	addi	s3,s3,104 # 9a48 <malloc+0x488>
    if(write(fd, "bbbbbbbbbb", SZ) != SZ){
     9e8:	00009a97          	auipc	s5,0x9
     9ec:	098a8a93          	addi	s5,s5,152 # 9a80 <malloc+0x4c0>
  for(i = 0; i < N; i++){
     9f0:	06400a13          	li	s4,100
    if(write(fd, "aaaaaaaaaa", SZ) != SZ){
     9f4:	4629                	li	a2,10
     9f6:	85ce                	mv	a1,s3
     9f8:	854a                	mv	a0,s2
     9fa:	00008097          	auipc	ra,0x8
     9fe:	5ae080e7          	jalr	1454(ra) # 8fa8 <write>
     a02:	47a9                	li	a5,10
     a04:	0af51563          	bne	a0,a5,aae <writetest+0x100>
    if(write(fd, "bbbbbbbbbb", SZ) != SZ){
     a08:	4629                	li	a2,10
     a0a:	85d6                	mv	a1,s5
     a0c:	854a                	mv	a0,s2
     a0e:	00008097          	auipc	ra,0x8
     a12:	59a080e7          	jalr	1434(ra) # 8fa8 <write>
     a16:	47a9                	li	a5,10
     a18:	0af51963          	bne	a0,a5,aca <writetest+0x11c>
  for(i = 0; i < N; i++){
     a1c:	2485                	addiw	s1,s1,1
     a1e:	fd449be3          	bne	s1,s4,9f4 <writetest+0x46>
  close(fd);
     a22:	854a                	mv	a0,s2
     a24:	00008097          	auipc	ra,0x8
     a28:	58c080e7          	jalr	1420(ra) # 8fb0 <close>
  fd = open("small", O_RDONLY);
     a2c:	4581                	li	a1,0
     a2e:	00009517          	auipc	a0,0x9
     a32:	ff250513          	addi	a0,a0,-14 # 9a20 <malloc+0x460>
     a36:	00008097          	auipc	ra,0x8
     a3a:	592080e7          	jalr	1426(ra) # 8fc8 <open>
     a3e:	84aa                	mv	s1,a0
  if(fd < 0){
     a40:	0a054363          	bltz	a0,ae6 <writetest+0x138>
  i = read(fd, buf, N*SZ*2);
     a44:	7d000613          	li	a2,2000
     a48:	0001c597          	auipc	a1,0x1c
     a4c:	68058593          	addi	a1,a1,1664 # 1d0c8 <buf>
     a50:	00008097          	auipc	ra,0x8
     a54:	550080e7          	jalr	1360(ra) # 8fa0 <read>
  if(i != N*SZ*2){
     a58:	7d000793          	li	a5,2000
     a5c:	0af51363          	bne	a0,a5,b02 <writetest+0x154>
  close(fd);
     a60:	8526                	mv	a0,s1
     a62:	00008097          	auipc	ra,0x8
     a66:	54e080e7          	jalr	1358(ra) # 8fb0 <close>
  if(remove("small") < 0){
     a6a:	00009517          	auipc	a0,0x9
     a6e:	fb650513          	addi	a0,a0,-74 # 9a20 <malloc+0x460>
     a72:	00008097          	auipc	ra,0x8
     a76:	5be080e7          	jalr	1470(ra) # 9030 <remove>
     a7a:	0a054263          	bltz	a0,b1e <writetest+0x170>
}
     a7e:	70e2                	ld	ra,56(sp)
     a80:	7442                	ld	s0,48(sp)
     a82:	74a2                	ld	s1,40(sp)
     a84:	7902                	ld	s2,32(sp)
     a86:	69e2                	ld	s3,24(sp)
     a88:	6a42                	ld	s4,16(sp)
     a8a:	6aa2                	ld	s5,8(sp)
     a8c:	6b02                	ld	s6,0(sp)
     a8e:	6121                	addi	sp,sp,64
     a90:	8082                	ret
    printf("%s: error: creat small failed!\n", s);
     a92:	85da                	mv	a1,s6
     a94:	00009517          	auipc	a0,0x9
     a98:	f9450513          	addi	a0,a0,-108 # 9a28 <malloc+0x468>
     a9c:	00009097          	auipc	ra,0x9
     aa0:	a6c080e7          	jalr	-1428(ra) # 9508 <printf>
    exit(1);
     aa4:	4505                	li	a0,1
     aa6:	00008097          	auipc	ra,0x8
     aaa:	4e2080e7          	jalr	1250(ra) # 8f88 <exit>
      printf("%s: error: write aa %d new file failed\n", i);
     aae:	85a6                	mv	a1,s1
     ab0:	00009517          	auipc	a0,0x9
     ab4:	fa850513          	addi	a0,a0,-88 # 9a58 <malloc+0x498>
     ab8:	00009097          	auipc	ra,0x9
     abc:	a50080e7          	jalr	-1456(ra) # 9508 <printf>
      exit(1);
     ac0:	4505                	li	a0,1
     ac2:	00008097          	auipc	ra,0x8
     ac6:	4c6080e7          	jalr	1222(ra) # 8f88 <exit>
      printf("%s: error: write bb %d new file failed\n", i);
     aca:	85a6                	mv	a1,s1
     acc:	00009517          	auipc	a0,0x9
     ad0:	fc450513          	addi	a0,a0,-60 # 9a90 <malloc+0x4d0>
     ad4:	00009097          	auipc	ra,0x9
     ad8:	a34080e7          	jalr	-1484(ra) # 9508 <printf>
      exit(1);
     adc:	4505                	li	a0,1
     ade:	00008097          	auipc	ra,0x8
     ae2:	4aa080e7          	jalr	1194(ra) # 8f88 <exit>
    printf("%s: error: open small failed!\n", s);
     ae6:	85da                	mv	a1,s6
     ae8:	00009517          	auipc	a0,0x9
     aec:	fd050513          	addi	a0,a0,-48 # 9ab8 <malloc+0x4f8>
     af0:	00009097          	auipc	ra,0x9
     af4:	a18080e7          	jalr	-1512(ra) # 9508 <printf>
    exit(1);
     af8:	4505                	li	a0,1
     afa:	00008097          	auipc	ra,0x8
     afe:	48e080e7          	jalr	1166(ra) # 8f88 <exit>
    printf("%s: read failed\n", s);
     b02:	85da                	mv	a1,s6
     b04:	00009517          	auipc	a0,0x9
     b08:	fd450513          	addi	a0,a0,-44 # 9ad8 <malloc+0x518>
     b0c:	00009097          	auipc	ra,0x9
     b10:	9fc080e7          	jalr	-1540(ra) # 9508 <printf>
    exit(1);
     b14:	4505                	li	a0,1
     b16:	00008097          	auipc	ra,0x8
     b1a:	472080e7          	jalr	1138(ra) # 8f88 <exit>
    printf("%s: remove small failed\n", s);
     b1e:	85da                	mv	a1,s6
     b20:	00009517          	auipc	a0,0x9
     b24:	fd050513          	addi	a0,a0,-48 # 9af0 <malloc+0x530>
     b28:	00009097          	auipc	ra,0x9
     b2c:	9e0080e7          	jalr	-1568(ra) # 9508 <printf>
    exit(1);
     b30:	4505                	li	a0,1
     b32:	00008097          	auipc	ra,0x8
     b36:	456080e7          	jalr	1110(ra) # 8f88 <exit>

0000000000000b3a <writebig>:
{
     b3a:	7179                	addi	sp,sp,-48
     b3c:	f406                	sd	ra,40(sp)
     b3e:	f022                	sd	s0,32(sp)
     b40:	ec26                	sd	s1,24(sp)
     b42:	e84a                	sd	s2,16(sp)
     b44:	e44e                	sd	s3,8(sp)
     b46:	e052                	sd	s4,0(sp)
     b48:	1800                	addi	s0,sp,48
     b4a:	8a2a                	mv	s4,a0
  fd = open("big", O_CREATE|O_RDWR);
     b4c:	20200593          	li	a1,514
     b50:	00009517          	auipc	a0,0x9
     b54:	fc050513          	addi	a0,a0,-64 # 9b10 <malloc+0x550>
     b58:	00008097          	auipc	ra,0x8
     b5c:	470080e7          	jalr	1136(ra) # 8fc8 <open>
     b60:	89aa                	mv	s3,a0
  for(i = 0; i < MAXFILE; i++){
     b62:	4481                	li	s1,0
    ((int*)buf)[0] = i;
     b64:	0001c917          	auipc	s2,0x1c
     b68:	56490913          	addi	s2,s2,1380 # 1d0c8 <buf>
  if(fd < 0){
     b6c:	06054e63          	bltz	a0,be8 <writebig+0xae>
    ((int*)buf)[0] = i;
     b70:	00992023          	sw	s1,0(s2)
    if(write(fd, buf, BSIZE) != BSIZE){
     b74:	20000613          	li	a2,512
     b78:	85ca                	mv	a1,s2
     b7a:	854e                	mv	a0,s3
     b7c:	00008097          	auipc	ra,0x8
     b80:	42c080e7          	jalr	1068(ra) # 8fa8 <write>
     b84:	20000793          	li	a5,512
     b88:	06f51e63          	bne	a0,a5,c04 <writebig+0xca>
  for(i = 0; i < MAXFILE; i++){
     b8c:	2485                	addiw	s1,s1,1
     b8e:	20000793          	li	a5,512
     b92:	fcf49fe3          	bne	s1,a5,b70 <writebig+0x36>
  close(fd);
     b96:	854e                	mv	a0,s3
     b98:	00008097          	auipc	ra,0x8
     b9c:	418080e7          	jalr	1048(ra) # 8fb0 <close>
  fd = open("big", O_RDONLY);
     ba0:	4581                	li	a1,0
     ba2:	00009517          	auipc	a0,0x9
     ba6:	f6e50513          	addi	a0,a0,-146 # 9b10 <malloc+0x550>
     baa:	00008097          	auipc	ra,0x8
     bae:	41e080e7          	jalr	1054(ra) # 8fc8 <open>
     bb2:	89aa                	mv	s3,a0
  n = 0;
     bb4:	4481                	li	s1,0
    i = read(fd, buf, BSIZE);
     bb6:	0001c917          	auipc	s2,0x1c
     bba:	51290913          	addi	s2,s2,1298 # 1d0c8 <buf>
  if(fd < 0){
     bbe:	06054163          	bltz	a0,c20 <writebig+0xe6>
    i = read(fd, buf, BSIZE);
     bc2:	20000613          	li	a2,512
     bc6:	85ca                	mv	a1,s2
     bc8:	854e                	mv	a0,s3
     bca:	00008097          	auipc	ra,0x8
     bce:	3d6080e7          	jalr	982(ra) # 8fa0 <read>
    if(i == 0){
     bd2:	c52d                	beqz	a0,c3c <writebig+0x102>
    } else if(i != BSIZE){
     bd4:	20000793          	li	a5,512
     bd8:	0af51c63          	bne	a0,a5,c90 <writebig+0x156>
    if(((int*)buf)[0] != n){
     bdc:	00092603          	lw	a2,0(s2)
     be0:	0c961663          	bne	a2,s1,cac <writebig+0x172>
    n++;
     be4:	2485                	addiw	s1,s1,1
    i = read(fd, buf, BSIZE);
     be6:	bff1                	j	bc2 <writebig+0x88>
    printf("%s: error: creat big failed!\n", s);
     be8:	85d2                	mv	a1,s4
     bea:	00009517          	auipc	a0,0x9
     bee:	f2e50513          	addi	a0,a0,-210 # 9b18 <malloc+0x558>
     bf2:	00009097          	auipc	ra,0x9
     bf6:	916080e7          	jalr	-1770(ra) # 9508 <printf>
    exit(1);
     bfa:	4505                	li	a0,1
     bfc:	00008097          	auipc	ra,0x8
     c00:	38c080e7          	jalr	908(ra) # 8f88 <exit>
      printf("%s: error: write big file failed\n", i);
     c04:	85a6                	mv	a1,s1
     c06:	00009517          	auipc	a0,0x9
     c0a:	f3250513          	addi	a0,a0,-206 # 9b38 <malloc+0x578>
     c0e:	00009097          	auipc	ra,0x9
     c12:	8fa080e7          	jalr	-1798(ra) # 9508 <printf>
      exit(1);
     c16:	4505                	li	a0,1
     c18:	00008097          	auipc	ra,0x8
     c1c:	370080e7          	jalr	880(ra) # 8f88 <exit>
    printf("%s: error: open big failed!\n", s);
     c20:	85d2                	mv	a1,s4
     c22:	00009517          	auipc	a0,0x9
     c26:	f3e50513          	addi	a0,a0,-194 # 9b60 <malloc+0x5a0>
     c2a:	00009097          	auipc	ra,0x9
     c2e:	8de080e7          	jalr	-1826(ra) # 9508 <printf>
    exit(1);
     c32:	4505                	li	a0,1
     c34:	00008097          	auipc	ra,0x8
     c38:	354080e7          	jalr	852(ra) # 8f88 <exit>
      if(n == MAXFILE - 1){
     c3c:	1ff00793          	li	a5,511
     c40:	02f48963          	beq	s1,a5,c72 <writebig+0x138>
  close(fd);
     c44:	854e                	mv	a0,s3
     c46:	00008097          	auipc	ra,0x8
     c4a:	36a080e7          	jalr	874(ra) # 8fb0 <close>
  if(remove("big") < 0){
     c4e:	00009517          	auipc	a0,0x9
     c52:	ec250513          	addi	a0,a0,-318 # 9b10 <malloc+0x550>
     c56:	00008097          	auipc	ra,0x8
     c5a:	3da080e7          	jalr	986(ra) # 9030 <remove>
     c5e:	06054563          	bltz	a0,cc8 <writebig+0x18e>
}
     c62:	70a2                	ld	ra,40(sp)
     c64:	7402                	ld	s0,32(sp)
     c66:	64e2                	ld	s1,24(sp)
     c68:	6942                	ld	s2,16(sp)
     c6a:	69a2                	ld	s3,8(sp)
     c6c:	6a02                	ld	s4,0(sp)
     c6e:	6145                	addi	sp,sp,48
     c70:	8082                	ret
        printf("%s: read only %d blocks from big", n);
     c72:	1ff00593          	li	a1,511
     c76:	00009517          	auipc	a0,0x9
     c7a:	f0a50513          	addi	a0,a0,-246 # 9b80 <malloc+0x5c0>
     c7e:	00009097          	auipc	ra,0x9
     c82:	88a080e7          	jalr	-1910(ra) # 9508 <printf>
        exit(1);
     c86:	4505                	li	a0,1
     c88:	00008097          	auipc	ra,0x8
     c8c:	300080e7          	jalr	768(ra) # 8f88 <exit>
      printf("%s: read failed %d\n", i);
     c90:	85aa                	mv	a1,a0
     c92:	00009517          	auipc	a0,0x9
     c96:	f1650513          	addi	a0,a0,-234 # 9ba8 <malloc+0x5e8>
     c9a:	00009097          	auipc	ra,0x9
     c9e:	86e080e7          	jalr	-1938(ra) # 9508 <printf>
      exit(1);
     ca2:	4505                	li	a0,1
     ca4:	00008097          	auipc	ra,0x8
     ca8:	2e4080e7          	jalr	740(ra) # 8f88 <exit>
      printf("%s: read content of block %d is %d\n",
     cac:	85a6                	mv	a1,s1
     cae:	00009517          	auipc	a0,0x9
     cb2:	f1250513          	addi	a0,a0,-238 # 9bc0 <malloc+0x600>
     cb6:	00009097          	auipc	ra,0x9
     cba:	852080e7          	jalr	-1966(ra) # 9508 <printf>
      exit(1);
     cbe:	4505                	li	a0,1
     cc0:	00008097          	auipc	ra,0x8
     cc4:	2c8080e7          	jalr	712(ra) # 8f88 <exit>
    printf("%s: remove big failed\n", s);
     cc8:	85d2                	mv	a1,s4
     cca:	00009517          	auipc	a0,0x9
     cce:	f1e50513          	addi	a0,a0,-226 # 9be8 <malloc+0x628>
     cd2:	00009097          	auipc	ra,0x9
     cd6:	836080e7          	jalr	-1994(ra) # 9508 <printf>
    exit(1);
     cda:	4505                	li	a0,1
     cdc:	00008097          	auipc	ra,0x8
     ce0:	2ac080e7          	jalr	684(ra) # 8f88 <exit>

0000000000000ce4 <removeread>:
{
     ce4:	7179                	addi	sp,sp,-48
     ce6:	f406                	sd	ra,40(sp)
     ce8:	f022                	sd	s0,32(sp)
     cea:	ec26                	sd	s1,24(sp)
     cec:	e84a                	sd	s2,16(sp)
     cee:	e44e                	sd	s3,8(sp)
     cf0:	1800                	addi	s0,sp,48
     cf2:	89aa                	mv	s3,a0
  fd = open("removeread", O_CREATE | O_RDWR);
     cf4:	20200593          	li	a1,514
     cf8:	00009517          	auipc	a0,0x9
     cfc:	f0850513          	addi	a0,a0,-248 # 9c00 <malloc+0x640>
     d00:	00008097          	auipc	ra,0x8
     d04:	2c8080e7          	jalr	712(ra) # 8fc8 <open>
  if(fd < 0){
     d08:	0e054763          	bltz	a0,df6 <removeread+0x112>
     d0c:	84aa                	mv	s1,a0
  write(fd, "hello", SZ);
     d0e:	4615                	li	a2,5
     d10:	00009597          	auipc	a1,0x9
     d14:	f2058593          	addi	a1,a1,-224 # 9c30 <malloc+0x670>
     d18:	00008097          	auipc	ra,0x8
     d1c:	290080e7          	jalr	656(ra) # 8fa8 <write>
  close(fd);
     d20:	8526                	mv	a0,s1
     d22:	00008097          	auipc	ra,0x8
     d26:	28e080e7          	jalr	654(ra) # 8fb0 <close>
  fd = open("removeread", O_RDWR);
     d2a:	4589                	li	a1,2
     d2c:	00009517          	auipc	a0,0x9
     d30:	ed450513          	addi	a0,a0,-300 # 9c00 <malloc+0x640>
     d34:	00008097          	auipc	ra,0x8
     d38:	294080e7          	jalr	660(ra) # 8fc8 <open>
     d3c:	84aa                	mv	s1,a0
  if(fd < 0){
     d3e:	0c054a63          	bltz	a0,e12 <removeread+0x12e>
  if(remove("removeread") != 0){
     d42:	00009517          	auipc	a0,0x9
     d46:	ebe50513          	addi	a0,a0,-322 # 9c00 <malloc+0x640>
     d4a:	00008097          	auipc	ra,0x8
     d4e:	2e6080e7          	jalr	742(ra) # 9030 <remove>
     d52:	ed71                	bnez	a0,e2e <removeread+0x14a>
  fd1 = open("removeread", O_CREATE | O_RDWR);
     d54:	20200593          	li	a1,514
     d58:	00009517          	auipc	a0,0x9
     d5c:	ea850513          	addi	a0,a0,-344 # 9c00 <malloc+0x640>
     d60:	00008097          	auipc	ra,0x8
     d64:	268080e7          	jalr	616(ra) # 8fc8 <open>
     d68:	892a                	mv	s2,a0
  write(fd1, "yyy", 3);
     d6a:	460d                	li	a2,3
     d6c:	00009597          	auipc	a1,0x9
     d70:	f0c58593          	addi	a1,a1,-244 # 9c78 <malloc+0x6b8>
     d74:	00008097          	auipc	ra,0x8
     d78:	234080e7          	jalr	564(ra) # 8fa8 <write>
  close(fd1);
     d7c:	854a                	mv	a0,s2
     d7e:	00008097          	auipc	ra,0x8
     d82:	232080e7          	jalr	562(ra) # 8fb0 <close>
  if(read(fd, buf, sizeof(buf)) != SZ){
     d86:	6609                	lui	a2,0x2
     d88:	80060613          	addi	a2,a2,-2048 # 1800 <exectest+0x172>
     d8c:	0001c597          	auipc	a1,0x1c
     d90:	33c58593          	addi	a1,a1,828 # 1d0c8 <buf>
     d94:	8526                	mv	a0,s1
     d96:	00008097          	auipc	ra,0x8
     d9a:	20a080e7          	jalr	522(ra) # 8fa0 <read>
     d9e:	4795                	li	a5,5
     da0:	0af51563          	bne	a0,a5,e4a <removeread+0x166>
  if(buf[0] != 'h'){
     da4:	0001c717          	auipc	a4,0x1c
     da8:	32474703          	lbu	a4,804(a4) # 1d0c8 <buf>
     dac:	06800793          	li	a5,104
     db0:	0af71b63          	bne	a4,a5,e66 <removeread+0x182>
  if(write(fd, buf, 10) != 10){
     db4:	4629                	li	a2,10
     db6:	0001c597          	auipc	a1,0x1c
     dba:	31258593          	addi	a1,a1,786 # 1d0c8 <buf>
     dbe:	8526                	mv	a0,s1
     dc0:	00008097          	auipc	ra,0x8
     dc4:	1e8080e7          	jalr	488(ra) # 8fa8 <write>
     dc8:	47a9                	li	a5,10
     dca:	0af51c63          	bne	a0,a5,e82 <removeread+0x19e>
  close(fd);
     dce:	8526                	mv	a0,s1
     dd0:	00008097          	auipc	ra,0x8
     dd4:	1e0080e7          	jalr	480(ra) # 8fb0 <close>
  remove("removeread");
     dd8:	00009517          	auipc	a0,0x9
     ddc:	e2850513          	addi	a0,a0,-472 # 9c00 <malloc+0x640>
     de0:	00008097          	auipc	ra,0x8
     de4:	250080e7          	jalr	592(ra) # 9030 <remove>
}
     de8:	70a2                	ld	ra,40(sp)
     dea:	7402                	ld	s0,32(sp)
     dec:	64e2                	ld	s1,24(sp)
     dee:	6942                	ld	s2,16(sp)
     df0:	69a2                	ld	s3,8(sp)
     df2:	6145                	addi	sp,sp,48
     df4:	8082                	ret
    printf("%s: create removeread failed\n", s);
     df6:	85ce                	mv	a1,s3
     df8:	00009517          	auipc	a0,0x9
     dfc:	e1850513          	addi	a0,a0,-488 # 9c10 <malloc+0x650>
     e00:	00008097          	auipc	ra,0x8
     e04:	708080e7          	jalr	1800(ra) # 9508 <printf>
    exit(1);
     e08:	4505                	li	a0,1
     e0a:	00008097          	auipc	ra,0x8
     e0e:	17e080e7          	jalr	382(ra) # 8f88 <exit>
    printf("%s: open removeread failed\n", s);
     e12:	85ce                	mv	a1,s3
     e14:	00009517          	auipc	a0,0x9
     e18:	e2450513          	addi	a0,a0,-476 # 9c38 <malloc+0x678>
     e1c:	00008097          	auipc	ra,0x8
     e20:	6ec080e7          	jalr	1772(ra) # 9508 <printf>
    exit(1);
     e24:	4505                	li	a0,1
     e26:	00008097          	auipc	ra,0x8
     e2a:	162080e7          	jalr	354(ra) # 8f88 <exit>
    printf("%s: remove removeread failed\n", s);
     e2e:	85ce                	mv	a1,s3
     e30:	00009517          	auipc	a0,0x9
     e34:	e2850513          	addi	a0,a0,-472 # 9c58 <malloc+0x698>
     e38:	00008097          	auipc	ra,0x8
     e3c:	6d0080e7          	jalr	1744(ra) # 9508 <printf>
    exit(1);
     e40:	4505                	li	a0,1
     e42:	00008097          	auipc	ra,0x8
     e46:	146080e7          	jalr	326(ra) # 8f88 <exit>
    printf("%s: removeread read failed", s);
     e4a:	85ce                	mv	a1,s3
     e4c:	00009517          	auipc	a0,0x9
     e50:	e3450513          	addi	a0,a0,-460 # 9c80 <malloc+0x6c0>
     e54:	00008097          	auipc	ra,0x8
     e58:	6b4080e7          	jalr	1716(ra) # 9508 <printf>
    exit(1);
     e5c:	4505                	li	a0,1
     e5e:	00008097          	auipc	ra,0x8
     e62:	12a080e7          	jalr	298(ra) # 8f88 <exit>
    printf("%s: removeread wrong data\n", s);
     e66:	85ce                	mv	a1,s3
     e68:	00009517          	auipc	a0,0x9
     e6c:	e3850513          	addi	a0,a0,-456 # 9ca0 <malloc+0x6e0>
     e70:	00008097          	auipc	ra,0x8
     e74:	698080e7          	jalr	1688(ra) # 9508 <printf>
    exit(1);
     e78:	4505                	li	a0,1
     e7a:	00008097          	auipc	ra,0x8
     e7e:	10e080e7          	jalr	270(ra) # 8f88 <exit>
    printf("%s: removeread write failed\n", s);
     e82:	85ce                	mv	a1,s3
     e84:	00009517          	auipc	a0,0x9
     e88:	e3c50513          	addi	a0,a0,-452 # 9cc0 <malloc+0x700>
     e8c:	00008097          	auipc	ra,0x8
     e90:	67c080e7          	jalr	1660(ra) # 9508 <printf>
    exit(1);
     e94:	4505                	li	a0,1
     e96:	00008097          	auipc	ra,0x8
     e9a:	0f2080e7          	jalr	242(ra) # 8f88 <exit>

0000000000000e9e <testdev>:
    if(verbose) { sigtest2_main(); return; }
    // Simplified: just verify sigaction exists
    sigaction(SIGUSR1, 0);
}

void testdev(char *s) {
     e9e:	7171                	addi	sp,sp,-176
     ea0:	f506                	sd	ra,168(sp)
     ea2:	f122                	sd	s0,160(sp)
     ea4:	ed26                	sd	s1,152(sp)
     ea6:	e94a                	sd	s2,144(sp)
     ea8:	e54e                	sd	s3,136(sp)
     eaa:	e152                	sd	s4,128(sp)
     eac:	fcd6                	sd	s5,120(sp)
     eae:	f8da                	sd	s6,112(sp)
     eb0:	1900                	addi	s0,sp,176
    if(verbose) { char *argv[] = {"testdev", 0}; testdev_main(1, argv); return; }
     eb2:	0000f797          	auipc	a5,0xf
     eb6:	9e27a783          	lw	a5,-1566(a5) # f894 <verbose>
     eba:	e7b1                	bnez	a5,f06 <testdev+0x68>
     ebc:	892a                	mv	s2,a0
    int fd = open("/dev/null", O_WRONLY);
     ebe:	4585                	li	a1,1
     ec0:	00009517          	auipc	a0,0x9
     ec4:	e6050513          	addi	a0,a0,-416 # 9d20 <malloc+0x760>
     ec8:	00008097          	auipc	ra,0x8
     ecc:	100080e7          	jalr	256(ra) # 8fc8 <open>
     ed0:	84aa                	mv	s1,a0
    if(fd < 0) { printf("%s: /dev/null failed\n", s); exit(1); }
     ed2:	3a054063          	bltz	a0,1272 <testdev+0x3d4>
    write(fd, "x", 1);
     ed6:	4605                	li	a2,1
     ed8:	00009597          	auipc	a1,0x9
     edc:	8a058593          	addi	a1,a1,-1888 # 9778 <malloc+0x1b8>
     ee0:	00008097          	auipc	ra,0x8
     ee4:	0c8080e7          	jalr	200(ra) # 8fa8 <write>
    close(fd);
     ee8:	8526                	mv	a0,s1
     eea:	00008097          	auipc	ra,0x8
     eee:	0c6080e7          	jalr	198(ra) # 8fb0 <close>
}
     ef2:	70aa                	ld	ra,168(sp)
     ef4:	740a                	ld	s0,160(sp)
     ef6:	64ea                	ld	s1,152(sp)
     ef8:	694a                	ld	s2,144(sp)
     efa:	69aa                	ld	s3,136(sp)
     efc:	6a0a                	ld	s4,128(sp)
     efe:	7ae6                	ld	s5,120(sp)
     f00:	7b46                	ld	s6,112(sp)
     f02:	614d                	addi	sp,sp,176
     f04:	8082                	ret
static int testdev_main()
{
  char buf[100];
  int fd, n;
  
  printf("=== Testing /dev/null ===\n");
     f06:	00009517          	auipc	a0,0x9
     f0a:	dda50513          	addi	a0,a0,-550 # 9ce0 <malloc+0x720>
     f0e:	00008097          	auipc	ra,0x8
     f12:	5fa080e7          	jalr	1530(ra) # 9508 <printf>
  
  // Test 1: Write to /dev/null (data should be discarded)
  printf("Test 1: Writing to /dev/null\n");
     f16:	00009517          	auipc	a0,0x9
     f1a:	dea50513          	addi	a0,a0,-534 # 9d00 <malloc+0x740>
     f1e:	00008097          	auipc	ra,0x8
     f22:	5ea080e7          	jalr	1514(ra) # 9508 <printf>
  fd = open("/dev/null", O_WRONLY);
     f26:	4585                	li	a1,1
     f28:	00009517          	auipc	a0,0x9
     f2c:	df850513          	addi	a0,a0,-520 # 9d20 <malloc+0x760>
     f30:	00008097          	auipc	ra,0x8
     f34:	098080e7          	jalr	152(ra) # 8fc8 <open>
     f38:	84aa                	mv	s1,a0
  if (fd < 0) {
     f3a:	14054663          	bltz	a0,1086 <testdev+0x1e8>
    printf("ERROR: Failed to open /dev/null\n");
    exit(1);
  }
  
  n = write(fd, "test data", 9);
     f3e:	4625                	li	a2,9
     f40:	00009597          	auipc	a1,0x9
     f44:	e1858593          	addi	a1,a1,-488 # 9d58 <malloc+0x798>
     f48:	00008097          	auipc	ra,0x8
     f4c:	060080e7          	jalr	96(ra) # 8fa8 <write>
     f50:	892a                	mv	s2,a0
  printf("  -> Write returned: %d bytes (data discarded)\n", n);
     f52:	85aa                	mv	a1,a0
     f54:	00009517          	auipc	a0,0x9
     f58:	e1450513          	addi	a0,a0,-492 # 9d68 <malloc+0x7a8>
     f5c:	00008097          	auipc	ra,0x8
     f60:	5ac080e7          	jalr	1452(ra) # 9508 <printf>
  if (n == 9) {
     f64:	47a5                	li	a5,9
     f66:	12f90d63          	beq	s2,a5,10a0 <testdev+0x202>
    printf("  -> SUCCESS: Write operation succeeded\n");
  } else {
    printf("  -> ERROR: Write should return 9 bytes\n");
     f6a:	00009517          	auipc	a0,0x9
     f6e:	e5e50513          	addi	a0,a0,-418 # 9dc8 <malloc+0x808>
     f72:	00008097          	auipc	ra,0x8
     f76:	596080e7          	jalr	1430(ra) # 9508 <printf>
  }
  close(fd);
     f7a:	8526                	mv	a0,s1
     f7c:	00008097          	auipc	ra,0x8
     f80:	034080e7          	jalr	52(ra) # 8fb0 <close>
  
  // Test 2: Read from /dev/null (should return EOF immediately)
  printf("\nTest 2: Reading from /dev/null\n");
     f84:	00009517          	auipc	a0,0x9
     f88:	e7450513          	addi	a0,a0,-396 # 9df8 <malloc+0x838>
     f8c:	00008097          	auipc	ra,0x8
     f90:	57c080e7          	jalr	1404(ra) # 9508 <printf>
  fd = open("/dev/null", O_RDONLY);
     f94:	4581                	li	a1,0
     f96:	00009517          	auipc	a0,0x9
     f9a:	d8a50513          	addi	a0,a0,-630 # 9d20 <malloc+0x760>
     f9e:	00008097          	auipc	ra,0x8
     fa2:	02a080e7          	jalr	42(ra) # 8fc8 <open>
     fa6:	84aa                	mv	s1,a0
  if (fd < 0) {
     fa8:	10054563          	bltz	a0,10b2 <testdev+0x214>
    printf("ERROR: Failed to open /dev/null\n");
    exit(1);
  }
  
  n = read(fd, buf, 100);
     fac:	06400613          	li	a2,100
     fb0:	f5840593          	addi	a1,s0,-168
     fb4:	00008097          	auipc	ra,0x8
     fb8:	fec080e7          	jalr	-20(ra) # 8fa0 <read>
     fbc:	892a                	mv	s2,a0
  printf("  -> Read returned: %d bytes (should be 0, EOF)\n", n);
     fbe:	85aa                	mv	a1,a0
     fc0:	00009517          	auipc	a0,0x9
     fc4:	e6050513          	addi	a0,a0,-416 # 9e20 <malloc+0x860>
     fc8:	00008097          	auipc	ra,0x8
     fcc:	540080e7          	jalr	1344(ra) # 9508 <printf>
  if (n == 0) {
     fd0:	0e091e63          	bnez	s2,10cc <testdev+0x22e>
    printf("  -> SUCCESS: /dev/null correctly returns EOF\n");
     fd4:	00009517          	auipc	a0,0x9
     fd8:	e8450513          	addi	a0,a0,-380 # 9e58 <malloc+0x898>
     fdc:	00008097          	auipc	ra,0x8
     fe0:	52c080e7          	jalr	1324(ra) # 9508 <printf>
  } else {
    printf("  -> ERROR: /dev/null should return 0 bytes\n");
  }
  close(fd);
     fe4:	8526                	mv	a0,s1
     fe6:	00008097          	auipc	ra,0x8
     fea:	fca080e7          	jalr	-54(ra) # 8fb0 <close>
  
  printf("\n=== Testing /dev/zero ===\n");
     fee:	00009517          	auipc	a0,0x9
     ff2:	eca50513          	addi	a0,a0,-310 # 9eb8 <malloc+0x8f8>
     ff6:	00008097          	auipc	ra,0x8
     ffa:	512080e7          	jalr	1298(ra) # 9508 <printf>
  
  // Test 3: Read from /dev/zero (should return all zeros)
  printf("Test 3: Reading from /dev/zero\n");
     ffe:	00009517          	auipc	a0,0x9
    1002:	eda50513          	addi	a0,a0,-294 # 9ed8 <malloc+0x918>
    1006:	00008097          	auipc	ra,0x8
    100a:	502080e7          	jalr	1282(ra) # 9508 <printf>
  fd = open("/dev/zero", O_RDONLY);
    100e:	4581                	li	a1,0
    1010:	00009517          	auipc	a0,0x9
    1014:	ee850513          	addi	a0,a0,-280 # 9ef8 <malloc+0x938>
    1018:	00008097          	auipc	ra,0x8
    101c:	fb0080e7          	jalr	-80(ra) # 8fc8 <open>
    1020:	84aa                	mv	s1,a0
  if (fd < 0) {
    1022:	0a054e63          	bltz	a0,10de <testdev+0x240>
    printf("ERROR: Failed to open /dev/zero\n");
    exit(1);
  }
  
  n = read(fd, buf, 50);
    1026:	03200613          	li	a2,50
    102a:	f5840593          	addi	a1,s0,-168
    102e:	00008097          	auipc	ra,0x8
    1032:	f72080e7          	jalr	-142(ra) # 8fa0 <read>
    1036:	892a                	mv	s2,a0
  printf("  -> Read returned: %d bytes\n", n);
    1038:	85aa                	mv	a1,a0
    103a:	00009517          	auipc	a0,0x9
    103e:	ef650513          	addi	a0,a0,-266 # 9f30 <malloc+0x970>
    1042:	00008097          	auipc	ra,0x8
    1046:	4c6080e7          	jalr	1222(ra) # 9508 <printf>
  
  // Check if all read data is zero
  int all_zero = 1;
  for (int i = 0; i < n; i++) {
    104a:	4781                	li	a5,0
    if (buf[i] != 0) {
    104c:	f5840713          	addi	a4,s0,-168
    1050:	0007859b          	sext.w	a1,a5
  for (int i = 0; i < n; i++) {
    1054:	0b25d263          	bge	a1,s2,10f8 <testdev+0x25a>
    if (buf[i] != 0) {
    1058:	0785                	addi	a5,a5,1
    105a:	00f706b3          	add	a3,a4,a5
    105e:	fff6c603          	lbu	a2,-1(a3)
    1062:	d67d                	beqz	a2,1050 <testdev+0x1b2>
      all_zero = 0;
      printf("  -> ERROR: Byte at position %d is %d, not 0\n", i, (unsigned char)buf[i]);
    1064:	00009517          	auipc	a0,0x9
    1068:	eec50513          	addi	a0,a0,-276 # 9f50 <malloc+0x990>
    106c:	00008097          	auipc	ra,0x8
    1070:	49c080e7          	jalr	1180(ra) # 9508 <printf>
  }
  
  if (all_zero) {
    printf("  -> SUCCESS: /dev/zero returns all zeros\n");
  } else {
    printf("  -> ERROR: /dev/zero should return all zeros\n");
    1074:	00009517          	auipc	a0,0x9
    1078:	f0c50513          	addi	a0,a0,-244 # 9f80 <malloc+0x9c0>
    107c:	00008097          	auipc	ra,0x8
    1080:	48c080e7          	jalr	1164(ra) # 9508 <printf>
    1084:	a051                	j	1108 <testdev+0x26a>
    printf("ERROR: Failed to open /dev/null\n");
    1086:	00009517          	auipc	a0,0x9
    108a:	caa50513          	addi	a0,a0,-854 # 9d30 <malloc+0x770>
    108e:	00008097          	auipc	ra,0x8
    1092:	47a080e7          	jalr	1146(ra) # 9508 <printf>
    exit(1);
    1096:	4505                	li	a0,1
    1098:	00008097          	auipc	ra,0x8
    109c:	ef0080e7          	jalr	-272(ra) # 8f88 <exit>
    printf("  -> SUCCESS: Write operation succeeded\n");
    10a0:	00009517          	auipc	a0,0x9
    10a4:	cf850513          	addi	a0,a0,-776 # 9d98 <malloc+0x7d8>
    10a8:	00008097          	auipc	ra,0x8
    10ac:	460080e7          	jalr	1120(ra) # 9508 <printf>
    10b0:	b5e9                	j	f7a <testdev+0xdc>
    printf("ERROR: Failed to open /dev/null\n");
    10b2:	00009517          	auipc	a0,0x9
    10b6:	c7e50513          	addi	a0,a0,-898 # 9d30 <malloc+0x770>
    10ba:	00008097          	auipc	ra,0x8
    10be:	44e080e7          	jalr	1102(ra) # 9508 <printf>
    exit(1);
    10c2:	4505                	li	a0,1
    10c4:	00008097          	auipc	ra,0x8
    10c8:	ec4080e7          	jalr	-316(ra) # 8f88 <exit>
    printf("  -> ERROR: /dev/null should return 0 bytes\n");
    10cc:	00009517          	auipc	a0,0x9
    10d0:	dbc50513          	addi	a0,a0,-580 # 9e88 <malloc+0x8c8>
    10d4:	00008097          	auipc	ra,0x8
    10d8:	434080e7          	jalr	1076(ra) # 9508 <printf>
    10dc:	b721                	j	fe4 <testdev+0x146>
    printf("ERROR: Failed to open /dev/zero\n");
    10de:	00009517          	auipc	a0,0x9
    10e2:	e2a50513          	addi	a0,a0,-470 # 9f08 <malloc+0x948>
    10e6:	00008097          	auipc	ra,0x8
    10ea:	422080e7          	jalr	1058(ra) # 9508 <printf>
    exit(1);
    10ee:	4505                	li	a0,1
    10f0:	00008097          	auipc	ra,0x8
    10f4:	e98080e7          	jalr	-360(ra) # 8f88 <exit>
    printf("  -> SUCCESS: /dev/zero returns all zeros\n");
    10f8:	00009517          	auipc	a0,0x9
    10fc:	eb850513          	addi	a0,a0,-328 # 9fb0 <malloc+0x9f0>
    1100:	00008097          	auipc	ra,0x8
    1104:	408080e7          	jalr	1032(ra) # 9508 <printf>
  }
  close(fd);
    1108:	8526                	mv	a0,s1
    110a:	00008097          	auipc	ra,0x8
    110e:	ea6080e7          	jalr	-346(ra) # 8fb0 <close>
  
  // Test 4: Write to /dev/zero (data should be discarded)
  printf("\nTest 4: Writing to /dev/zero\n");
    1112:	00009517          	auipc	a0,0x9
    1116:	ece50513          	addi	a0,a0,-306 # 9fe0 <malloc+0xa20>
    111a:	00008097          	auipc	ra,0x8
    111e:	3ee080e7          	jalr	1006(ra) # 9508 <printf>
  fd = open("/dev/zero", O_WRONLY);
    1122:	4585                	li	a1,1
    1124:	00009517          	auipc	a0,0x9
    1128:	dd450513          	addi	a0,a0,-556 # 9ef8 <malloc+0x938>
    112c:	00008097          	auipc	ra,0x8
    1130:	e9c080e7          	jalr	-356(ra) # 8fc8 <open>
    1134:	84aa                	mv	s1,a0
  if (fd < 0) {
    1136:	0e054663          	bltz	a0,1222 <testdev+0x384>
    printf("ERROR: Failed to open /dev/zero\n");
    exit(1);
  }
  
  n = write(fd, "test data", 9);
    113a:	4625                	li	a2,9
    113c:	00009597          	auipc	a1,0x9
    1140:	c1c58593          	addi	a1,a1,-996 # 9d58 <malloc+0x798>
    1144:	00008097          	auipc	ra,0x8
    1148:	e64080e7          	jalr	-412(ra) # 8fa8 <write>
    114c:	892a                	mv	s2,a0
  printf("  -> Write returned: %d bytes (data discarded)\n", n);
    114e:	85aa                	mv	a1,a0
    1150:	00009517          	auipc	a0,0x9
    1154:	c1850513          	addi	a0,a0,-1000 # 9d68 <malloc+0x7a8>
    1158:	00008097          	auipc	ra,0x8
    115c:	3b0080e7          	jalr	944(ra) # 9508 <printf>
  if (n == 9) {
    1160:	47a5                	li	a5,9
    1162:	0cf90d63          	beq	s2,a5,123c <testdev+0x39e>
    printf("  -> SUCCESS: Write operation succeeded\n");
  } else {
    printf("  -> ERROR: Write should return 9 bytes\n");
    1166:	00009517          	auipc	a0,0x9
    116a:	c6250513          	addi	a0,a0,-926 # 9dc8 <malloc+0x808>
    116e:	00008097          	auipc	ra,0x8
    1172:	39a080e7          	jalr	922(ra) # 9508 <printf>
  }
  close(fd);
    1176:	8526                	mv	a0,s1
    1178:	00008097          	auipc	ra,0x8
    117c:	e38080e7          	jalr	-456(ra) # 8fb0 <close>
  
  // Test 5: Multiple reads from /dev/zero (verify infinite reading)
  printf("\nTest 5: Multiple reads from /dev/zero\n");
    1180:	00009517          	auipc	a0,0x9
    1184:	e8050513          	addi	a0,a0,-384 # a000 <malloc+0xa40>
    1188:	00008097          	auipc	ra,0x8
    118c:	380080e7          	jalr	896(ra) # 9508 <printf>
  fd = open("/dev/zero", O_RDONLY);
    1190:	4581                	li	a1,0
    1192:	00009517          	auipc	a0,0x9
    1196:	d6650513          	addi	a0,a0,-666 # 9ef8 <malloc+0x938>
    119a:	00008097          	auipc	ra,0x8
    119e:	e2e080e7          	jalr	-466(ra) # 8fc8 <open>
    11a2:	84aa                	mv	s1,a0
  for (int i = 0; i < 3; i++) {
    11a4:	4901                	li	s2,0
    n = read(fd, buf, 10);
    11a6:	f5840a93          	addi	s5,s0,-168
    printf("  -> Read #%d: %d bytes\n", i + 1, n);
    11aa:	00009b17          	auipc	s6,0x9
    11ae:	e7eb0b13          	addi	s6,s6,-386 # a028 <malloc+0xa68>
  for (int i = 0; i < 3; i++) {
    11b2:	4a0d                	li	s4,3
    n = read(fd, buf, 10);
    11b4:	4629                	li	a2,10
    11b6:	85d6                	mv	a1,s5
    11b8:	8526                	mv	a0,s1
    11ba:	00008097          	auipc	ra,0x8
    11be:	de6080e7          	jalr	-538(ra) # 8fa0 <read>
    11c2:	89aa                	mv	s3,a0
    printf("  -> Read #%d: %d bytes\n", i + 1, n);
    11c4:	2905                	addiw	s2,s2,1
    11c6:	862a                	mv	a2,a0
    11c8:	85ca                	mv	a1,s2
    11ca:	855a                	mv	a0,s6
    11cc:	00008097          	auipc	ra,0x8
    11d0:	33c080e7          	jalr	828(ra) # 9508 <printf>
    if (n != 10) {
    11d4:	47a9                	li	a5,10
    11d6:	06f99c63          	bne	s3,a5,124e <testdev+0x3b0>
  for (int i = 0; i < 3; i++) {
    11da:	fd491de3          	bne	s2,s4,11b4 <testdev+0x316>
      printf("  -> ERROR: Read should return 10 bytes\n");
      close(fd);
      exit(1);
    }
  }
  printf("  -> SUCCESS: Multiple reads work correctly\n");
    11de:	00009517          	auipc	a0,0x9
    11e2:	e9a50513          	addi	a0,a0,-358 # a078 <malloc+0xab8>
    11e6:	00008097          	auipc	ra,0x8
    11ea:	322080e7          	jalr	802(ra) # 9508 <printf>
  close(fd);
    11ee:	8526                	mv	a0,s1
    11f0:	00008097          	auipc	ra,0x8
    11f4:	dc0080e7          	jalr	-576(ra) # 8fb0 <close>
  
  printf("\n=== All tests completed ===\n");
    11f8:	00009517          	auipc	a0,0x9
    11fc:	eb050513          	addi	a0,a0,-336 # a0a8 <malloc+0xae8>
    1200:	00008097          	auipc	ra,0x8
    1204:	308080e7          	jalr	776(ra) # 9508 <printf>
  printf("SUCCESS: /dev/null and /dev/zero are working correctly!\n");
    1208:	00009517          	auipc	a0,0x9
    120c:	ec050513          	addi	a0,a0,-320 # a0c8 <malloc+0xb08>
    1210:	00008097          	auipc	ra,0x8
    1214:	2f8080e7          	jalr	760(ra) # 9508 <printf>
  
  exit(0);
    1218:	4501                	li	a0,0
    121a:	00008097          	auipc	ra,0x8
    121e:	d6e080e7          	jalr	-658(ra) # 8f88 <exit>
    printf("ERROR: Failed to open /dev/zero\n");
    1222:	00009517          	auipc	a0,0x9
    1226:	ce650513          	addi	a0,a0,-794 # 9f08 <malloc+0x948>
    122a:	00008097          	auipc	ra,0x8
    122e:	2de080e7          	jalr	734(ra) # 9508 <printf>
    exit(1);
    1232:	4505                	li	a0,1
    1234:	00008097          	auipc	ra,0x8
    1238:	d54080e7          	jalr	-684(ra) # 8f88 <exit>
    printf("  -> SUCCESS: Write operation succeeded\n");
    123c:	00009517          	auipc	a0,0x9
    1240:	b5c50513          	addi	a0,a0,-1188 # 9d98 <malloc+0x7d8>
    1244:	00008097          	auipc	ra,0x8
    1248:	2c4080e7          	jalr	708(ra) # 9508 <printf>
    124c:	b72d                	j	1176 <testdev+0x2d8>
      printf("  -> ERROR: Read should return 10 bytes\n");
    124e:	00009517          	auipc	a0,0x9
    1252:	dfa50513          	addi	a0,a0,-518 # a048 <malloc+0xa88>
    1256:	00008097          	auipc	ra,0x8
    125a:	2b2080e7          	jalr	690(ra) # 9508 <printf>
      close(fd);
    125e:	8526                	mv	a0,s1
    1260:	00008097          	auipc	ra,0x8
    1264:	d50080e7          	jalr	-688(ra) # 8fb0 <close>
      exit(1);
    1268:	4505                	li	a0,1
    126a:	00008097          	auipc	ra,0x8
    126e:	d1e080e7          	jalr	-738(ra) # 8f88 <exit>
    if(fd < 0) { printf("%s: /dev/null failed\n", s); exit(1); }
    1272:	85ca                	mv	a1,s2
    1274:	00009517          	auipc	a0,0x9
    1278:	e9450513          	addi	a0,a0,-364 # a108 <malloc+0xb48>
    127c:	00008097          	auipc	ra,0x8
    1280:	28c080e7          	jalr	652(ra) # 9508 <printf>
    1284:	4505                	li	a0,1
    1286:	00008097          	auipc	ra,0x8
    128a:	d02080e7          	jalr	-766(ra) # 8f88 <exit>

000000000000128e <pgbug>:
{
    128e:	7179                	addi	sp,sp,-48
    1290:	f406                	sd	ra,40(sp)
    1292:	f022                	sd	s0,32(sp)
    1294:	ec26                	sd	s1,24(sp)
    1296:	1800                	addi	s0,sp,48
  argv[0] = 0;
    1298:	fc043c23          	sd	zero,-40(s0)
  exec((char*)0xeaeb0b5b00002f5e, argv);
    129c:	0000e497          	auipc	s1,0xe
    12a0:	0944b483          	ld	s1,148(s1) # f330 <malloc+0x5d70>
    12a4:	fd840593          	addi	a1,s0,-40
    12a8:	8526                	mv	a0,s1
    12aa:	00008097          	auipc	ra,0x8
    12ae:	d16080e7          	jalr	-746(ra) # 8fc0 <exec>
  pipe((int*)0xeaeb0b5b00002f5e);
    12b2:	8526                	mv	a0,s1
    12b4:	00008097          	auipc	ra,0x8
    12b8:	ce4080e7          	jalr	-796(ra) # 8f98 <pipe>
  exit(0);
    12bc:	4501                	li	a0,0
    12be:	00008097          	auipc	ra,0x8
    12c2:	cca080e7          	jalr	-822(ra) # 8f88 <exit>

00000000000012c6 <badarg>:
{
    12c6:	7139                	addi	sp,sp,-64
    12c8:	fc06                	sd	ra,56(sp)
    12ca:	f822                	sd	s0,48(sp)
    12cc:	f426                	sd	s1,40(sp)
    12ce:	f04a                	sd	s2,32(sp)
    12d0:	ec4e                	sd	s3,24(sp)
    12d2:	e852                	sd	s4,16(sp)
    12d4:	0080                	addi	s0,sp,64
    12d6:	64b1                	lui	s1,0xc
    12d8:	35048493          	addi	s1,s1,848 # c350 <malloc+0x2d90>
    argv[0] = (char*)0xffffffff;
    12dc:	597d                	li	s2,-1
    12de:	02095913          	srli	s2,s2,0x20
    exec("echo", argv);
    12e2:	fc040a13          	addi	s4,s0,-64
    12e6:	00008997          	auipc	s3,0x8
    12ea:	42298993          	addi	s3,s3,1058 # 9708 <malloc+0x148>
    argv[0] = (char*)0xffffffff;
    12ee:	fd243023          	sd	s2,-64(s0)
    argv[1] = 0;
    12f2:	fc043423          	sd	zero,-56(s0)
    exec("echo", argv);
    12f6:	85d2                	mv	a1,s4
    12f8:	854e                	mv	a0,s3
    12fa:	00008097          	auipc	ra,0x8
    12fe:	cc6080e7          	jalr	-826(ra) # 8fc0 <exec>
  for(int i = 0; i < 50000; i++){
    1302:	34fd                	addiw	s1,s1,-1
    1304:	f4ed                	bnez	s1,12ee <badarg+0x28>
  exit(0);
    1306:	4501                	li	a0,0
    1308:	00008097          	auipc	ra,0x8
    130c:	c80080e7          	jalr	-896(ra) # 8f88 <exit>

0000000000001310 <copyinstr2>:
{
    1310:	714d                	addi	sp,sp,-336
    1312:	e686                	sd	ra,328(sp)
    1314:	e2a2                	sd	s0,320(sp)
    1316:	0a80                	addi	s0,sp,336
  for(int i = 0; i < MAXPATH; i++)
    1318:	ee840793          	addi	a5,s0,-280
    131c:	fec40693          	addi	a3,s0,-20
    b[i] = 'x';
    1320:	07800713          	li	a4,120
    1324:	00e78023          	sb	a4,0(a5)
  for(int i = 0; i < MAXPATH; i++)
    1328:	0785                	addi	a5,a5,1
    132a:	fed79de3          	bne	a5,a3,1324 <copyinstr2+0x14>
  b[MAXPATH] = '\0';
    132e:	fe040623          	sb	zero,-20(s0)
  int ret = remove(b);
    1332:	ee840513          	addi	a0,s0,-280
    1336:	00008097          	auipc	ra,0x8
    133a:	cfa080e7          	jalr	-774(ra) # 9030 <remove>
  if(ret != -1){
    133e:	57fd                	li	a5,-1
    1340:	0cf51663          	bne	a0,a5,140c <copyinstr2+0xfc>
  int fd = open(b, O_CREATE | O_WRONLY);
    1344:	20100593          	li	a1,513
    1348:	ee840513          	addi	a0,s0,-280
    134c:	00008097          	auipc	ra,0x8
    1350:	c7c080e7          	jalr	-900(ra) # 8fc8 <open>
  if(fd != -1){
    1354:	57fd                	li	a5,-1
    1356:	0cf51b63          	bne	a0,a5,142c <copyinstr2+0x11c>
  char *args[] = { "xx", 0 };
    135a:	0000a797          	auipc	a5,0xa
    135e:	9de78793          	addi	a5,a5,-1570 # ad38 <malloc+0x1778>
    1362:	ecf43c23          	sd	a5,-296(s0)
    1366:	ee043023          	sd	zero,-288(s0)
  ret = exec(b, args);
    136a:	ed840593          	addi	a1,s0,-296
    136e:	ee840513          	addi	a0,s0,-280
    1372:	00008097          	auipc	ra,0x8
    1376:	c4e080e7          	jalr	-946(ra) # 8fc0 <exec>
  if(ret != -1){
    137a:	57fd                	li	a5,-1
    137c:	0cf51863          	bne	a0,a5,144c <copyinstr2+0x13c>
  int pid = fork();
    1380:	00008097          	auipc	ra,0x8
    1384:	c00080e7          	jalr	-1024(ra) # 8f80 <fork>
  if(pid < 0){
    1388:	0e054263          	bltz	a0,146c <copyinstr2+0x15c>
  if(pid == 0){
    138c:	10051363          	bnez	a0,1492 <copyinstr2+0x182>
    1390:	0000e797          	auipc	a5,0xe
    1394:	61878793          	addi	a5,a5,1560 # f9a8 <big.0>
    1398:	0000f697          	auipc	a3,0xf
    139c:	61068693          	addi	a3,a3,1552 # 109a8 <__global_pointer$+0x920>
      big[i] = 'x';
    13a0:	07800713          	li	a4,120
    13a4:	00e78023          	sb	a4,0(a5)
    for(int i = 0; i < PGSIZE; i++)
    13a8:	0785                	addi	a5,a5,1
    13aa:	fed79de3          	bne	a5,a3,13a4 <copyinstr2+0x94>
    big[PGSIZE] = '\0';
    13ae:	0000f797          	auipc	a5,0xf
    13b2:	5e078d23          	sb	zero,1530(a5) # 109a8 <__global_pointer$+0x920>
    char *args2[] = { big, big, big, 0 };
    13b6:	0000e797          	auipc	a5,0xe
    13ba:	ffa78793          	addi	a5,a5,-6 # f3b0 <__DATA_BEGIN__>
    13be:	6390                	ld	a2,0(a5)
    13c0:	6794                	ld	a3,8(a5)
    13c2:	6b98                	ld	a4,16(a5)
    13c4:	6f9c                	ld	a5,24(a5)
    13c6:	eac43823          	sd	a2,-336(s0)
    13ca:	ead43c23          	sd	a3,-328(s0)
    13ce:	ece43023          	sd	a4,-320(s0)
    13d2:	ecf43423          	sd	a5,-312(s0)
    ret = exec("echo", args2);
    13d6:	eb040593          	addi	a1,s0,-336
    13da:	00008517          	auipc	a0,0x8
    13de:	32e50513          	addi	a0,a0,814 # 9708 <malloc+0x148>
    13e2:	00008097          	auipc	ra,0x8
    13e6:	bde080e7          	jalr	-1058(ra) # 8fc0 <exec>
    if(ret != -1){
    13ea:	57fd                	li	a5,-1
    13ec:	08f50d63          	beq	a0,a5,1486 <copyinstr2+0x176>
      printf("exec(echo, BIG) returned %d, not -1\n", fd);
    13f0:	55fd                	li	a1,-1
    13f2:	00009517          	auipc	a0,0x9
    13f6:	d8e50513          	addi	a0,a0,-626 # a180 <malloc+0xbc0>
    13fa:	00008097          	auipc	ra,0x8
    13fe:	10e080e7          	jalr	270(ra) # 9508 <printf>
      exit(1);
    1402:	4505                	li	a0,1
    1404:	00008097          	auipc	ra,0x8
    1408:	b84080e7          	jalr	-1148(ra) # 8f88 <exit>
    printf("remove(%s) returned %d, not -1\n", b, ret);
    140c:	862a                	mv	a2,a0
    140e:	ee840593          	addi	a1,s0,-280
    1412:	00009517          	auipc	a0,0x9
    1416:	d0e50513          	addi	a0,a0,-754 # a120 <malloc+0xb60>
    141a:	00008097          	auipc	ra,0x8
    141e:	0ee080e7          	jalr	238(ra) # 9508 <printf>
    exit(1);
    1422:	4505                	li	a0,1
    1424:	00008097          	auipc	ra,0x8
    1428:	b64080e7          	jalr	-1180(ra) # 8f88 <exit>
    printf("open(%s) returned %d, not -1\n", b, fd);
    142c:	862a                	mv	a2,a0
    142e:	ee840593          	addi	a1,s0,-280
    1432:	00009517          	auipc	a0,0x9
    1436:	d0e50513          	addi	a0,a0,-754 # a140 <malloc+0xb80>
    143a:	00008097          	auipc	ra,0x8
    143e:	0ce080e7          	jalr	206(ra) # 9508 <printf>
    exit(1);
    1442:	4505                	li	a0,1
    1444:	00008097          	auipc	ra,0x8
    1448:	b44080e7          	jalr	-1212(ra) # 8f88 <exit>
    printf("exec(%s) returned %d, not -1\n", b, fd);
    144c:	567d                	li	a2,-1
    144e:	ee840593          	addi	a1,s0,-280
    1452:	00009517          	auipc	a0,0x9
    1456:	d0e50513          	addi	a0,a0,-754 # a160 <malloc+0xba0>
    145a:	00008097          	auipc	ra,0x8
    145e:	0ae080e7          	jalr	174(ra) # 9508 <printf>
    exit(1);
    1462:	4505                	li	a0,1
    1464:	00008097          	auipc	ra,0x8
    1468:	b24080e7          	jalr	-1244(ra) # 8f88 <exit>
    printf("fork failed\n");
    146c:	00009517          	auipc	a0,0x9
    1470:	0ec50513          	addi	a0,a0,236 # a558 <malloc+0xf98>
    1474:	00008097          	auipc	ra,0x8
    1478:	094080e7          	jalr	148(ra) # 9508 <printf>
    exit(1);
    147c:	4505                	li	a0,1
    147e:	00008097          	auipc	ra,0x8
    1482:	b0a080e7          	jalr	-1270(ra) # 8f88 <exit>
    exit(747); // OK
    1486:	2eb00513          	li	a0,747
    148a:	00008097          	auipc	ra,0x8
    148e:	afe080e7          	jalr	-1282(ra) # 8f88 <exit>
  int st = 0;
    1492:	ec042a23          	sw	zero,-300(s0)
  wait(&st);
    1496:	ed440513          	addi	a0,s0,-300
    149a:	00008097          	auipc	ra,0x8
    149e:	af6080e7          	jalr	-1290(ra) # 8f90 <wait>
  if(st != 747){
    14a2:	ed442703          	lw	a4,-300(s0)
    14a6:	2eb00793          	li	a5,747
    14aa:	00f71663          	bne	a4,a5,14b6 <copyinstr2+0x1a6>
}
    14ae:	60b6                	ld	ra,328(sp)
    14b0:	6416                	ld	s0,320(sp)
    14b2:	6171                	addi	sp,sp,336
    14b4:	8082                	ret
    printf("exec(echo, BIG) succeeded, should have failed\n");
    14b6:	00009517          	auipc	a0,0x9
    14ba:	cf250513          	addi	a0,a0,-782 # a1a8 <malloc+0xbe8>
    14be:	00008097          	auipc	ra,0x8
    14c2:	04a080e7          	jalr	74(ra) # 9508 <printf>
    exit(1);
    14c6:	4505                	li	a0,1
    14c8:	00008097          	auipc	ra,0x8
    14cc:	ac0080e7          	jalr	-1344(ra) # 8f88 <exit>

00000000000014d0 <truncate3>:
{
    14d0:	7159                	addi	sp,sp,-112
    14d2:	f486                	sd	ra,104(sp)
    14d4:	f0a2                	sd	s0,96(sp)
    14d6:	eca6                	sd	s1,88(sp)
    14d8:	e8ca                	sd	s2,80(sp)
    14da:	e4ce                	sd	s3,72(sp)
    14dc:	e0d2                	sd	s4,64(sp)
    14de:	fc56                	sd	s5,56(sp)
    14e0:	f85a                	sd	s6,48(sp)
    14e2:	1880                	addi	s0,sp,112
    14e4:	892a                	mv	s2,a0
  close(open("truncfile", O_CREATE|O_TRUNC|O_WRONLY));
    14e6:	60100593          	li	a1,1537
    14ea:	00008517          	auipc	a0,0x8
    14ee:	27650513          	addi	a0,a0,630 # 9760 <malloc+0x1a0>
    14f2:	00008097          	auipc	ra,0x8
    14f6:	ad6080e7          	jalr	-1322(ra) # 8fc8 <open>
    14fa:	00008097          	auipc	ra,0x8
    14fe:	ab6080e7          	jalr	-1354(ra) # 8fb0 <close>
  pid = fork();
    1502:	00008097          	auipc	ra,0x8
    1506:	a7e080e7          	jalr	-1410(ra) # 8f80 <fork>
  if(pid < 0){
    150a:	08054163          	bltz	a0,158c <truncate3+0xbc>
  if(pid == 0){
    150e:	e971                	bnez	a0,15e2 <truncate3+0x112>
    1510:	06400993          	li	s3,100
      int fd = open("truncfile", O_WRONLY);
    1514:	00008a17          	auipc	s4,0x8
    1518:	24ca0a13          	addi	s4,s4,588 # 9760 <malloc+0x1a0>
      int n = write(fd, "1234567890", 10);
    151c:	00009a97          	auipc	s5,0x9
    1520:	ceca8a93          	addi	s5,s5,-788 # a208 <malloc+0xc48>
      read(fd, buf, sizeof(buf));
    1524:	f9840b13          	addi	s6,s0,-104
      int fd = open("truncfile", O_WRONLY);
    1528:	4585                	li	a1,1
    152a:	8552                	mv	a0,s4
    152c:	00008097          	auipc	ra,0x8
    1530:	a9c080e7          	jalr	-1380(ra) # 8fc8 <open>
    1534:	84aa                	mv	s1,a0
      if(fd < 0){
    1536:	06054963          	bltz	a0,15a8 <truncate3+0xd8>
      int n = write(fd, "1234567890", 10);
    153a:	4629                	li	a2,10
    153c:	85d6                	mv	a1,s5
    153e:	00008097          	auipc	ra,0x8
    1542:	a6a080e7          	jalr	-1430(ra) # 8fa8 <write>
      if(n != 10){
    1546:	47a9                	li	a5,10
    1548:	06f51e63          	bne	a0,a5,15c4 <truncate3+0xf4>
      close(fd);
    154c:	8526                	mv	a0,s1
    154e:	00008097          	auipc	ra,0x8
    1552:	a62080e7          	jalr	-1438(ra) # 8fb0 <close>
      fd = open("truncfile", O_RDONLY);
    1556:	4581                	li	a1,0
    1558:	8552                	mv	a0,s4
    155a:	00008097          	auipc	ra,0x8
    155e:	a6e080e7          	jalr	-1426(ra) # 8fc8 <open>
    1562:	84aa                	mv	s1,a0
      read(fd, buf, sizeof(buf));
    1564:	02000613          	li	a2,32
    1568:	85da                	mv	a1,s6
    156a:	00008097          	auipc	ra,0x8
    156e:	a36080e7          	jalr	-1482(ra) # 8fa0 <read>
      close(fd);
    1572:	8526                	mv	a0,s1
    1574:	00008097          	auipc	ra,0x8
    1578:	a3c080e7          	jalr	-1476(ra) # 8fb0 <close>
    for(int i = 0; i < 100; i++){
    157c:	39fd                	addiw	s3,s3,-1
    157e:	fa0995e3          	bnez	s3,1528 <truncate3+0x58>
    exit(0);
    1582:	4501                	li	a0,0
    1584:	00008097          	auipc	ra,0x8
    1588:	a04080e7          	jalr	-1532(ra) # 8f88 <exit>
    printf("%s: fork failed\n", s);
    158c:	85ca                	mv	a1,s2
    158e:	00009517          	auipc	a0,0x9
    1592:	c4a50513          	addi	a0,a0,-950 # a1d8 <malloc+0xc18>
    1596:	00008097          	auipc	ra,0x8
    159a:	f72080e7          	jalr	-142(ra) # 9508 <printf>
    exit(1);
    159e:	4505                	li	a0,1
    15a0:	00008097          	auipc	ra,0x8
    15a4:	9e8080e7          	jalr	-1560(ra) # 8f88 <exit>
        printf("%s: open failed\n", s);
    15a8:	85ca                	mv	a1,s2
    15aa:	00009517          	auipc	a0,0x9
    15ae:	c4650513          	addi	a0,a0,-954 # a1f0 <malloc+0xc30>
    15b2:	00008097          	auipc	ra,0x8
    15b6:	f56080e7          	jalr	-170(ra) # 9508 <printf>
        exit(1);
    15ba:	4505                	li	a0,1
    15bc:	00008097          	auipc	ra,0x8
    15c0:	9cc080e7          	jalr	-1588(ra) # 8f88 <exit>
        printf("%s: write got %d, expected 10\n", s, n);
    15c4:	862a                	mv	a2,a0
    15c6:	85ca                	mv	a1,s2
    15c8:	00009517          	auipc	a0,0x9
    15cc:	c5050513          	addi	a0,a0,-944 # a218 <malloc+0xc58>
    15d0:	00008097          	auipc	ra,0x8
    15d4:	f38080e7          	jalr	-200(ra) # 9508 <printf>
        exit(1);
    15d8:	4505                	li	a0,1
    15da:	00008097          	auipc	ra,0x8
    15de:	9ae080e7          	jalr	-1618(ra) # 8f88 <exit>
    15e2:	09600993          	li	s3,150
    int fd = open("truncfile", O_CREATE|O_WRONLY|O_TRUNC);
    15e6:	00008a17          	auipc	s4,0x8
    15ea:	17aa0a13          	addi	s4,s4,378 # 9760 <malloc+0x1a0>
    int n = write(fd, "xxx", 3);
    15ee:	00009a97          	auipc	s5,0x9
    15f2:	c4aa8a93          	addi	s5,s5,-950 # a238 <malloc+0xc78>
    int fd = open("truncfile", O_CREATE|O_WRONLY|O_TRUNC);
    15f6:	60100593          	li	a1,1537
    15fa:	8552                	mv	a0,s4
    15fc:	00008097          	auipc	ra,0x8
    1600:	9cc080e7          	jalr	-1588(ra) # 8fc8 <open>
    1604:	84aa                	mv	s1,a0
    if(fd < 0){
    1606:	04054763          	bltz	a0,1654 <truncate3+0x184>
    int n = write(fd, "xxx", 3);
    160a:	460d                	li	a2,3
    160c:	85d6                	mv	a1,s5
    160e:	00008097          	auipc	ra,0x8
    1612:	99a080e7          	jalr	-1638(ra) # 8fa8 <write>
    if(n != 3){
    1616:	478d                	li	a5,3
    1618:	04f51c63          	bne	a0,a5,1670 <truncate3+0x1a0>
    close(fd);
    161c:	8526                	mv	a0,s1
    161e:	00008097          	auipc	ra,0x8
    1622:	992080e7          	jalr	-1646(ra) # 8fb0 <close>
  for(int i = 0; i < 150; i++){
    1626:	39fd                	addiw	s3,s3,-1
    1628:	fc0997e3          	bnez	s3,15f6 <truncate3+0x126>
  wait(&xstatus);
    162c:	fbc40513          	addi	a0,s0,-68
    1630:	00008097          	auipc	ra,0x8
    1634:	960080e7          	jalr	-1696(ra) # 8f90 <wait>
  remove("truncfile");
    1638:	00008517          	auipc	a0,0x8
    163c:	12850513          	addi	a0,a0,296 # 9760 <malloc+0x1a0>
    1640:	00008097          	auipc	ra,0x8
    1644:	9f0080e7          	jalr	-1552(ra) # 9030 <remove>
  exit(xstatus);
    1648:	fbc42503          	lw	a0,-68(s0)
    164c:	00008097          	auipc	ra,0x8
    1650:	93c080e7          	jalr	-1732(ra) # 8f88 <exit>
      printf("%s: open failed\n", s);
    1654:	85ca                	mv	a1,s2
    1656:	00009517          	auipc	a0,0x9
    165a:	b9a50513          	addi	a0,a0,-1126 # a1f0 <malloc+0xc30>
    165e:	00008097          	auipc	ra,0x8
    1662:	eaa080e7          	jalr	-342(ra) # 9508 <printf>
      exit(1);
    1666:	4505                	li	a0,1
    1668:	00008097          	auipc	ra,0x8
    166c:	920080e7          	jalr	-1760(ra) # 8f88 <exit>
      printf("%s: write got %d, expected 3\n", s, n);
    1670:	862a                	mv	a2,a0
    1672:	85ca                	mv	a1,s2
    1674:	00009517          	auipc	a0,0x9
    1678:	bcc50513          	addi	a0,a0,-1076 # a240 <malloc+0xc80>
    167c:	00008097          	auipc	ra,0x8
    1680:	e8c080e7          	jalr	-372(ra) # 9508 <printf>
      exit(1);
    1684:	4505                	li	a0,1
    1686:	00008097          	auipc	ra,0x8
    168a:	902080e7          	jalr	-1790(ra) # 8f88 <exit>

000000000000168e <exectest>:
{
    168e:	715d                	addi	sp,sp,-80
    1690:	e486                	sd	ra,72(sp)
    1692:	e0a2                	sd	s0,64(sp)
    1694:	fc26                	sd	s1,56(sp)
    1696:	f84a                	sd	s2,48(sp)
    1698:	0880                	addi	s0,sp,80
    169a:	892a                	mv	s2,a0
  char *echoargv[] = { "echo", "OK", 0 };
    169c:	00008797          	auipc	a5,0x8
    16a0:	06c78793          	addi	a5,a5,108 # 9708 <malloc+0x148>
    16a4:	fcf43023          	sd	a5,-64(s0)
    16a8:	00009797          	auipc	a5,0x9
    16ac:	bb878793          	addi	a5,a5,-1096 # a260 <malloc+0xca0>
    16b0:	fcf43423          	sd	a5,-56(s0)
    16b4:	fc043823          	sd	zero,-48(s0)
  remove("echo-ok");
    16b8:	00009517          	auipc	a0,0x9
    16bc:	bb050513          	addi	a0,a0,-1104 # a268 <malloc+0xca8>
    16c0:	00008097          	auipc	ra,0x8
    16c4:	970080e7          	jalr	-1680(ra) # 9030 <remove>
  pid = fork();
    16c8:	00008097          	auipc	ra,0x8
    16cc:	8b8080e7          	jalr	-1864(ra) # 8f80 <fork>
  if(pid < 0) {
    16d0:	04054663          	bltz	a0,171c <exectest+0x8e>
    16d4:	84aa                	mv	s1,a0
  if(pid == 0) {
    16d6:	e959                	bnez	a0,176c <exectest+0xde>
    close(1);
    16d8:	4505                	li	a0,1
    16da:	00008097          	auipc	ra,0x8
    16de:	8d6080e7          	jalr	-1834(ra) # 8fb0 <close>
    fd = open("echo-ok", O_CREATE|O_WRONLY);
    16e2:	20100593          	li	a1,513
    16e6:	00009517          	auipc	a0,0x9
    16ea:	b8250513          	addi	a0,a0,-1150 # a268 <malloc+0xca8>
    16ee:	00008097          	auipc	ra,0x8
    16f2:	8da080e7          	jalr	-1830(ra) # 8fc8 <open>
    if(fd < 0) {
    16f6:	04054163          	bltz	a0,1738 <exectest+0xaa>
    if(fd != 1) {
    16fa:	4785                	li	a5,1
    16fc:	04f50c63          	beq	a0,a5,1754 <exectest+0xc6>
      printf("%s: wrong fd\n", s);
    1700:	85ca                	mv	a1,s2
    1702:	00009517          	auipc	a0,0x9
    1706:	b8650513          	addi	a0,a0,-1146 # a288 <malloc+0xcc8>
    170a:	00008097          	auipc	ra,0x8
    170e:	dfe080e7          	jalr	-514(ra) # 9508 <printf>
      exit(1);
    1712:	4505                	li	a0,1
    1714:	00008097          	auipc	ra,0x8
    1718:	874080e7          	jalr	-1932(ra) # 8f88 <exit>
     printf("%s: fork failed\n", s);
    171c:	85ca                	mv	a1,s2
    171e:	00009517          	auipc	a0,0x9
    1722:	aba50513          	addi	a0,a0,-1350 # a1d8 <malloc+0xc18>
    1726:	00008097          	auipc	ra,0x8
    172a:	de2080e7          	jalr	-542(ra) # 9508 <printf>
     exit(1);
    172e:	4505                	li	a0,1
    1730:	00008097          	auipc	ra,0x8
    1734:	858080e7          	jalr	-1960(ra) # 8f88 <exit>
      printf("%s: create failed\n", s);
    1738:	85ca                	mv	a1,s2
    173a:	00009517          	auipc	a0,0x9
    173e:	b3650513          	addi	a0,a0,-1226 # a270 <malloc+0xcb0>
    1742:	00008097          	auipc	ra,0x8
    1746:	dc6080e7          	jalr	-570(ra) # 9508 <printf>
      exit(1);
    174a:	4505                	li	a0,1
    174c:	00008097          	auipc	ra,0x8
    1750:	83c080e7          	jalr	-1988(ra) # 8f88 <exit>
    if(exec("echo", echoargv) < 0){
    1754:	fc040593          	addi	a1,s0,-64
    1758:	00008517          	auipc	a0,0x8
    175c:	fb050513          	addi	a0,a0,-80 # 9708 <malloc+0x148>
    1760:	00008097          	auipc	ra,0x8
    1764:	860080e7          	jalr	-1952(ra) # 8fc0 <exec>
    1768:	02054163          	bltz	a0,178a <exectest+0xfc>
  if (wait(&xstatus) != pid) {
    176c:	fdc40513          	addi	a0,s0,-36
    1770:	00008097          	auipc	ra,0x8
    1774:	820080e7          	jalr	-2016(ra) # 8f90 <wait>
    1778:	02951763          	bne	a0,s1,17a6 <exectest+0x118>
  if(xstatus != 0)
    177c:	fdc42503          	lw	a0,-36(s0)
    1780:	cd0d                	beqz	a0,17ba <exectest+0x12c>
    exit(xstatus);
    1782:	00008097          	auipc	ra,0x8
    1786:	806080e7          	jalr	-2042(ra) # 8f88 <exit>
      printf("%s: exec echo failed\n", s);
    178a:	85ca                	mv	a1,s2
    178c:	00009517          	auipc	a0,0x9
    1790:	b0c50513          	addi	a0,a0,-1268 # a298 <malloc+0xcd8>
    1794:	00008097          	auipc	ra,0x8
    1798:	d74080e7          	jalr	-652(ra) # 9508 <printf>
      exit(1);
    179c:	4505                	li	a0,1
    179e:	00007097          	auipc	ra,0x7
    17a2:	7ea080e7          	jalr	2026(ra) # 8f88 <exit>
    printf("%s: wait failed!\n", s);
    17a6:	85ca                	mv	a1,s2
    17a8:	00009517          	auipc	a0,0x9
    17ac:	b0850513          	addi	a0,a0,-1272 # a2b0 <malloc+0xcf0>
    17b0:	00008097          	auipc	ra,0x8
    17b4:	d58080e7          	jalr	-680(ra) # 9508 <printf>
    17b8:	b7d1                	j	177c <exectest+0xee>
  fd = open("echo-ok", O_RDONLY);
    17ba:	4581                	li	a1,0
    17bc:	00009517          	auipc	a0,0x9
    17c0:	aac50513          	addi	a0,a0,-1364 # a268 <malloc+0xca8>
    17c4:	00008097          	auipc	ra,0x8
    17c8:	804080e7          	jalr	-2044(ra) # 8fc8 <open>
  if(fd < 0) {
    17cc:	02054a63          	bltz	a0,1800 <exectest+0x172>
  if (read(fd, buf, 2) != 2) {
    17d0:	4609                	li	a2,2
    17d2:	fb840593          	addi	a1,s0,-72
    17d6:	00007097          	auipc	ra,0x7
    17da:	7ca080e7          	jalr	1994(ra) # 8fa0 <read>
    17de:	4789                	li	a5,2
    17e0:	02f50e63          	beq	a0,a5,181c <exectest+0x18e>
    printf("%s: read failed\n", s);
    17e4:	85ca                	mv	a1,s2
    17e6:	00008517          	auipc	a0,0x8
    17ea:	2f250513          	addi	a0,a0,754 # 9ad8 <malloc+0x518>
    17ee:	00008097          	auipc	ra,0x8
    17f2:	d1a080e7          	jalr	-742(ra) # 9508 <printf>
    exit(1);
    17f6:	4505                	li	a0,1
    17f8:	00007097          	auipc	ra,0x7
    17fc:	790080e7          	jalr	1936(ra) # 8f88 <exit>
    printf("%s: open failed\n", s);
    1800:	85ca                	mv	a1,s2
    1802:	00009517          	auipc	a0,0x9
    1806:	9ee50513          	addi	a0,a0,-1554 # a1f0 <malloc+0xc30>
    180a:	00008097          	auipc	ra,0x8
    180e:	cfe080e7          	jalr	-770(ra) # 9508 <printf>
    exit(1);
    1812:	4505                	li	a0,1
    1814:	00007097          	auipc	ra,0x7
    1818:	774080e7          	jalr	1908(ra) # 8f88 <exit>
  remove("echo-ok");
    181c:	00009517          	auipc	a0,0x9
    1820:	a4c50513          	addi	a0,a0,-1460 # a268 <malloc+0xca8>
    1824:	00008097          	auipc	ra,0x8
    1828:	80c080e7          	jalr	-2036(ra) # 9030 <remove>
  if(buf[0] == 'O' && buf[1] == 'K')
    182c:	fb844703          	lbu	a4,-72(s0)
    1830:	04f00793          	li	a5,79
    1834:	00f71863          	bne	a4,a5,1844 <exectest+0x1b6>
    1838:	fb944703          	lbu	a4,-71(s0)
    183c:	04b00793          	li	a5,75
    1840:	02f70063          	beq	a4,a5,1860 <exectest+0x1d2>
    printf("%s: wrong output\n", s);
    1844:	85ca                	mv	a1,s2
    1846:	00009517          	auipc	a0,0x9
    184a:	a8250513          	addi	a0,a0,-1406 # a2c8 <malloc+0xd08>
    184e:	00008097          	auipc	ra,0x8
    1852:	cba080e7          	jalr	-838(ra) # 9508 <printf>
    exit(1);
    1856:	4505                	li	a0,1
    1858:	00007097          	auipc	ra,0x7
    185c:	730080e7          	jalr	1840(ra) # 8f88 <exit>
    exit(0);
    1860:	4501                	li	a0,0
    1862:	00007097          	auipc	ra,0x7
    1866:	726080e7          	jalr	1830(ra) # 8f88 <exit>

000000000000186a <pipe1>:
{
    186a:	711d                	addi	sp,sp,-96
    186c:	ec86                	sd	ra,88(sp)
    186e:	e8a2                	sd	s0,80(sp)
    1870:	e4a6                	sd	s1,72(sp)
    1872:	e0ca                	sd	s2,64(sp)
    1874:	fc4e                	sd	s3,56(sp)
    1876:	f852                	sd	s4,48(sp)
    1878:	f456                	sd	s5,40(sp)
    187a:	f05a                	sd	s6,32(sp)
    187c:	ec5e                	sd	s7,24(sp)
    187e:	1080                	addi	s0,sp,96
    1880:	892a                	mv	s2,a0
  if(pipe(fds) != 0){
    1882:	fa840513          	addi	a0,s0,-88
    1886:	00007097          	auipc	ra,0x7
    188a:	712080e7          	jalr	1810(ra) # 8f98 <pipe>
    188e:	ed2d                	bnez	a0,1908 <pipe1+0x9e>
    1890:	84aa                	mv	s1,a0
  pid = fork();
    1892:	00007097          	auipc	ra,0x7
    1896:	6ee080e7          	jalr	1774(ra) # 8f80 <fork>
    189a:	8a2a                	mv	s4,a0
  if(pid == 0){
    189c:	c541                	beqz	a0,1924 <pipe1+0xba>
  } else if(pid > 0){
    189e:	16a05f63          	blez	a0,1a1c <pipe1+0x1b2>
    close(fds[1]);
    18a2:	fac42503          	lw	a0,-84(s0)
    18a6:	00007097          	auipc	ra,0x7
    18aa:	70a080e7          	jalr	1802(ra) # 8fb0 <close>
    total = 0;
    18ae:	8aa6                	mv	s5,s1
    cc = 1;
    18b0:	4985                	li	s3,1
    while((n = read(fds[0], buf, cc)) > 0){
    18b2:	0001cb17          	auipc	s6,0x1c
    18b6:	816b0b13          	addi	s6,s6,-2026 # 1d0c8 <buf>
      if(cc > sizeof(buf))
    18ba:	6a09                	lui	s4,0x2
    18bc:	800a0a13          	addi	s4,s4,-2048 # 1800 <exectest+0x172>
    while((n = read(fds[0], buf, cc)) > 0){
    18c0:	864e                	mv	a2,s3
    18c2:	85da                	mv	a1,s6
    18c4:	fa842503          	lw	a0,-88(s0)
    18c8:	00007097          	auipc	ra,0x7
    18cc:	6d8080e7          	jalr	1752(ra) # 8fa0 <read>
    18d0:	10a05163          	blez	a0,19d2 <pipe1+0x168>
      for(i = 0; i < n; i++){
    18d4:	0001b717          	auipc	a4,0x1b
    18d8:	7f470713          	addi	a4,a4,2036 # 1d0c8 <buf>
    18dc:	00a4863b          	addw	a2,s1,a0
        if((buf[i] & 0xff) != (seq++ & 0xff)){
    18e0:	00074683          	lbu	a3,0(a4)
    18e4:	0ff4f793          	zext.b	a5,s1
    18e8:	2485                	addiw	s1,s1,1
    18ea:	0cf69063          	bne	a3,a5,19aa <pipe1+0x140>
      for(i = 0; i < n; i++){
    18ee:	0705                	addi	a4,a4,1
    18f0:	fec498e3          	bne	s1,a2,18e0 <pipe1+0x76>
      total += n;
    18f4:	00aa8abb          	addw	s5,s5,a0
      cc = cc * 2;
    18f8:	0019979b          	slliw	a5,s3,0x1
    18fc:	0007899b          	sext.w	s3,a5
      if(cc > sizeof(buf))
    1900:	fd3a70e3          	bgeu	s4,s3,18c0 <pipe1+0x56>
        cc = sizeof(buf);
    1904:	89d2                	mv	s3,s4
    1906:	bf6d                	j	18c0 <pipe1+0x56>
    printf("%s: pipe() failed\n", s);
    1908:	85ca                	mv	a1,s2
    190a:	00009517          	auipc	a0,0x9
    190e:	9d650513          	addi	a0,a0,-1578 # a2e0 <malloc+0xd20>
    1912:	00008097          	auipc	ra,0x8
    1916:	bf6080e7          	jalr	-1034(ra) # 9508 <printf>
    exit(1);
    191a:	4505                	li	a0,1
    191c:	00007097          	auipc	ra,0x7
    1920:	66c080e7          	jalr	1644(ra) # 8f88 <exit>
    close(fds[0]);
    1924:	fa842503          	lw	a0,-88(s0)
    1928:	00007097          	auipc	ra,0x7
    192c:	688080e7          	jalr	1672(ra) # 8fb0 <close>
    for(n = 0; n < N; n++){
    1930:	0001bb17          	auipc	s6,0x1b
    1934:	798b0b13          	addi	s6,s6,1944 # 1d0c8 <buf>
    1938:	416004bb          	negw	s1,s6
    193c:	0ff4f493          	zext.b	s1,s1
    1940:	409b0993          	addi	s3,s6,1033
      if(write(fds[1], buf, SZ) != SZ){
    1944:	8bda                	mv	s7,s6
    for(n = 0; n < N; n++){
    1946:	6a85                	lui	s5,0x1
    1948:	42da8a93          	addi	s5,s5,1069 # 142d <copyinstr2+0x11d>
{
    194c:	87da                	mv	a5,s6
        buf[i] = seq++;
    194e:	0097873b          	addw	a4,a5,s1
    1952:	00e78023          	sb	a4,0(a5)
      for(i = 0; i < SZ; i++)
    1956:	0785                	addi	a5,a5,1
    1958:	fef99be3          	bne	s3,a5,194e <pipe1+0xe4>
        buf[i] = seq++;
    195c:	409a0a1b          	addiw	s4,s4,1033
      if(write(fds[1], buf, SZ) != SZ){
    1960:	40900613          	li	a2,1033
    1964:	85de                	mv	a1,s7
    1966:	fac42503          	lw	a0,-84(s0)
    196a:	00007097          	auipc	ra,0x7
    196e:	63e080e7          	jalr	1598(ra) # 8fa8 <write>
    1972:	40900793          	li	a5,1033
    1976:	00f51c63          	bne	a0,a5,198e <pipe1+0x124>
    for(n = 0; n < N; n++){
    197a:	24a5                	addiw	s1,s1,9
    197c:	0ff4f493          	zext.b	s1,s1
    1980:	fd5a16e3          	bne	s4,s5,194c <pipe1+0xe2>
    exit(0);
    1984:	4501                	li	a0,0
    1986:	00007097          	auipc	ra,0x7
    198a:	602080e7          	jalr	1538(ra) # 8f88 <exit>
        printf("%s: pipe1 oops 1\n", s);
    198e:	85ca                	mv	a1,s2
    1990:	00009517          	auipc	a0,0x9
    1994:	96850513          	addi	a0,a0,-1688 # a2f8 <malloc+0xd38>
    1998:	00008097          	auipc	ra,0x8
    199c:	b70080e7          	jalr	-1168(ra) # 9508 <printf>
        exit(1);
    19a0:	4505                	li	a0,1
    19a2:	00007097          	auipc	ra,0x7
    19a6:	5e6080e7          	jalr	1510(ra) # 8f88 <exit>
          printf("%s: pipe1 oops 2\n", s);
    19aa:	85ca                	mv	a1,s2
    19ac:	00009517          	auipc	a0,0x9
    19b0:	96450513          	addi	a0,a0,-1692 # a310 <malloc+0xd50>
    19b4:	00008097          	auipc	ra,0x8
    19b8:	b54080e7          	jalr	-1196(ra) # 9508 <printf>
}
    19bc:	60e6                	ld	ra,88(sp)
    19be:	6446                	ld	s0,80(sp)
    19c0:	64a6                	ld	s1,72(sp)
    19c2:	6906                	ld	s2,64(sp)
    19c4:	79e2                	ld	s3,56(sp)
    19c6:	7a42                	ld	s4,48(sp)
    19c8:	7aa2                	ld	s5,40(sp)
    19ca:	7b02                	ld	s6,32(sp)
    19cc:	6be2                	ld	s7,24(sp)
    19ce:	6125                	addi	sp,sp,96
    19d0:	8082                	ret
    if(total != N * SZ){
    19d2:	6785                	lui	a5,0x1
    19d4:	42d78793          	addi	a5,a5,1069 # 142d <copyinstr2+0x11d>
    19d8:	02fa8063          	beq	s5,a5,19f8 <pipe1+0x18e>
      printf("%s: pipe1 oops 3 total %d\n", total);
    19dc:	85d6                	mv	a1,s5
    19de:	00009517          	auipc	a0,0x9
    19e2:	94a50513          	addi	a0,a0,-1718 # a328 <malloc+0xd68>
    19e6:	00008097          	auipc	ra,0x8
    19ea:	b22080e7          	jalr	-1246(ra) # 9508 <printf>
      exit(1);
    19ee:	4505                	li	a0,1
    19f0:	00007097          	auipc	ra,0x7
    19f4:	598080e7          	jalr	1432(ra) # 8f88 <exit>
    close(fds[0]);
    19f8:	fa842503          	lw	a0,-88(s0)
    19fc:	00007097          	auipc	ra,0x7
    1a00:	5b4080e7          	jalr	1460(ra) # 8fb0 <close>
    wait(&xstatus);
    1a04:	fa440513          	addi	a0,s0,-92
    1a08:	00007097          	auipc	ra,0x7
    1a0c:	588080e7          	jalr	1416(ra) # 8f90 <wait>
    exit(xstatus);
    1a10:	fa442503          	lw	a0,-92(s0)
    1a14:	00007097          	auipc	ra,0x7
    1a18:	574080e7          	jalr	1396(ra) # 8f88 <exit>
    printf("%s: fork() failed\n", s);
    1a1c:	85ca                	mv	a1,s2
    1a1e:	00009517          	auipc	a0,0x9
    1a22:	92a50513          	addi	a0,a0,-1750 # a348 <malloc+0xd88>
    1a26:	00008097          	auipc	ra,0x8
    1a2a:	ae2080e7          	jalr	-1310(ra) # 9508 <printf>
    exit(1);
    1a2e:	4505                	li	a0,1
    1a30:	00007097          	auipc	ra,0x7
    1a34:	558080e7          	jalr	1368(ra) # 8f88 <exit>

0000000000001a38 <exitwait>:
{
    1a38:	715d                	addi	sp,sp,-80
    1a3a:	e486                	sd	ra,72(sp)
    1a3c:	e0a2                	sd	s0,64(sp)
    1a3e:	fc26                	sd	s1,56(sp)
    1a40:	f84a                	sd	s2,48(sp)
    1a42:	f44e                	sd	s3,40(sp)
    1a44:	f052                	sd	s4,32(sp)
    1a46:	ec56                	sd	s5,24(sp)
    1a48:	0880                	addi	s0,sp,80
    1a4a:	8aaa                	mv	s5,a0
  for(i = 0; i < 100; i++){
    1a4c:	4901                	li	s2,0
      if(wait(&xstate) != pid){
    1a4e:	fbc40993          	addi	s3,s0,-68
  for(i = 0; i < 100; i++){
    1a52:	06400a13          	li	s4,100
    pid = fork();
    1a56:	00007097          	auipc	ra,0x7
    1a5a:	52a080e7          	jalr	1322(ra) # 8f80 <fork>
    1a5e:	84aa                	mv	s1,a0
    if(pid < 0){
    1a60:	02054a63          	bltz	a0,1a94 <exitwait+0x5c>
    if(pid){
    1a64:	c151                	beqz	a0,1ae8 <exitwait+0xb0>
      if(wait(&xstate) != pid){
    1a66:	854e                	mv	a0,s3
    1a68:	00007097          	auipc	ra,0x7
    1a6c:	528080e7          	jalr	1320(ra) # 8f90 <wait>
    1a70:	04951063          	bne	a0,s1,1ab0 <exitwait+0x78>
      if(i != xstate) {
    1a74:	fbc42783          	lw	a5,-68(s0)
    1a78:	05279a63          	bne	a5,s2,1acc <exitwait+0x94>
  for(i = 0; i < 100; i++){
    1a7c:	2905                	addiw	s2,s2,1
    1a7e:	fd491ce3          	bne	s2,s4,1a56 <exitwait+0x1e>
}
    1a82:	60a6                	ld	ra,72(sp)
    1a84:	6406                	ld	s0,64(sp)
    1a86:	74e2                	ld	s1,56(sp)
    1a88:	7942                	ld	s2,48(sp)
    1a8a:	79a2                	ld	s3,40(sp)
    1a8c:	7a02                	ld	s4,32(sp)
    1a8e:	6ae2                	ld	s5,24(sp)
    1a90:	6161                	addi	sp,sp,80
    1a92:	8082                	ret
      printf("%s: fork failed\n", s);
    1a94:	85d6                	mv	a1,s5
    1a96:	00008517          	auipc	a0,0x8
    1a9a:	74250513          	addi	a0,a0,1858 # a1d8 <malloc+0xc18>
    1a9e:	00008097          	auipc	ra,0x8
    1aa2:	a6a080e7          	jalr	-1430(ra) # 9508 <printf>
      exit(1);
    1aa6:	4505                	li	a0,1
    1aa8:	00007097          	auipc	ra,0x7
    1aac:	4e0080e7          	jalr	1248(ra) # 8f88 <exit>
        printf("%s: wait wrong pid\n", s);
    1ab0:	85d6                	mv	a1,s5
    1ab2:	00009517          	auipc	a0,0x9
    1ab6:	8ae50513          	addi	a0,a0,-1874 # a360 <malloc+0xda0>
    1aba:	00008097          	auipc	ra,0x8
    1abe:	a4e080e7          	jalr	-1458(ra) # 9508 <printf>
        exit(1);
    1ac2:	4505                	li	a0,1
    1ac4:	00007097          	auipc	ra,0x7
    1ac8:	4c4080e7          	jalr	1220(ra) # 8f88 <exit>
        printf("%s: wait wrong exit status\n", s);
    1acc:	85d6                	mv	a1,s5
    1ace:	00009517          	auipc	a0,0x9
    1ad2:	8aa50513          	addi	a0,a0,-1878 # a378 <malloc+0xdb8>
    1ad6:	00008097          	auipc	ra,0x8
    1ada:	a32080e7          	jalr	-1486(ra) # 9508 <printf>
        exit(1);
    1ade:	4505                	li	a0,1
    1ae0:	00007097          	auipc	ra,0x7
    1ae4:	4a8080e7          	jalr	1192(ra) # 8f88 <exit>
      exit(i);
    1ae8:	854a                	mv	a0,s2
    1aea:	00007097          	auipc	ra,0x7
    1aee:	49e080e7          	jalr	1182(ra) # 8f88 <exit>

0000000000001af2 <twochildren>:
{
    1af2:	1101                	addi	sp,sp,-32
    1af4:	ec06                	sd	ra,24(sp)
    1af6:	e822                	sd	s0,16(sp)
    1af8:	e426                	sd	s1,8(sp)
    1afa:	e04a                	sd	s2,0(sp)
    1afc:	1000                	addi	s0,sp,32
    1afe:	892a                	mv	s2,a0
    1b00:	3e800493          	li	s1,1000
    int pid1 = fork();
    1b04:	00007097          	auipc	ra,0x7
    1b08:	47c080e7          	jalr	1148(ra) # 8f80 <fork>
    if(pid1 < 0){
    1b0c:	02054c63          	bltz	a0,1b44 <twochildren+0x52>
    if(pid1 == 0){
    1b10:	c921                	beqz	a0,1b60 <twochildren+0x6e>
      int pid2 = fork();
    1b12:	00007097          	auipc	ra,0x7
    1b16:	46e080e7          	jalr	1134(ra) # 8f80 <fork>
      if(pid2 < 0){
    1b1a:	04054763          	bltz	a0,1b68 <twochildren+0x76>
      if(pid2 == 0){
    1b1e:	c13d                	beqz	a0,1b84 <twochildren+0x92>
        wait(0);
    1b20:	4501                	li	a0,0
    1b22:	00007097          	auipc	ra,0x7
    1b26:	46e080e7          	jalr	1134(ra) # 8f90 <wait>
        wait(0);
    1b2a:	4501                	li	a0,0
    1b2c:	00007097          	auipc	ra,0x7
    1b30:	464080e7          	jalr	1124(ra) # 8f90 <wait>
  for(int i = 0; i < 1000; i++){
    1b34:	34fd                	addiw	s1,s1,-1
    1b36:	f4f9                	bnez	s1,1b04 <twochildren+0x12>
}
    1b38:	60e2                	ld	ra,24(sp)
    1b3a:	6442                	ld	s0,16(sp)
    1b3c:	64a2                	ld	s1,8(sp)
    1b3e:	6902                	ld	s2,0(sp)
    1b40:	6105                	addi	sp,sp,32
    1b42:	8082                	ret
      printf("%s: fork failed\n", s);
    1b44:	85ca                	mv	a1,s2
    1b46:	00008517          	auipc	a0,0x8
    1b4a:	69250513          	addi	a0,a0,1682 # a1d8 <malloc+0xc18>
    1b4e:	00008097          	auipc	ra,0x8
    1b52:	9ba080e7          	jalr	-1606(ra) # 9508 <printf>
      exit(1);
    1b56:	4505                	li	a0,1
    1b58:	00007097          	auipc	ra,0x7
    1b5c:	430080e7          	jalr	1072(ra) # 8f88 <exit>
      exit(0);
    1b60:	00007097          	auipc	ra,0x7
    1b64:	428080e7          	jalr	1064(ra) # 8f88 <exit>
        printf("%s: fork failed\n", s);
    1b68:	85ca                	mv	a1,s2
    1b6a:	00008517          	auipc	a0,0x8
    1b6e:	66e50513          	addi	a0,a0,1646 # a1d8 <malloc+0xc18>
    1b72:	00008097          	auipc	ra,0x8
    1b76:	996080e7          	jalr	-1642(ra) # 9508 <printf>
        exit(1);
    1b7a:	4505                	li	a0,1
    1b7c:	00007097          	auipc	ra,0x7
    1b80:	40c080e7          	jalr	1036(ra) # 8f88 <exit>
        exit(0);
    1b84:	00007097          	auipc	ra,0x7
    1b88:	404080e7          	jalr	1028(ra) # 8f88 <exit>

0000000000001b8c <forkfork>:
{
    1b8c:	7179                	addi	sp,sp,-48
    1b8e:	f406                	sd	ra,40(sp)
    1b90:	f022                	sd	s0,32(sp)
    1b92:	ec26                	sd	s1,24(sp)
    1b94:	1800                	addi	s0,sp,48
    1b96:	84aa                	mv	s1,a0
    int pid = fork();
    1b98:	00007097          	auipc	ra,0x7
    1b9c:	3e8080e7          	jalr	1000(ra) # 8f80 <fork>
    if(pid < 0){
    1ba0:	04054163          	bltz	a0,1be2 <forkfork+0x56>
    if(pid == 0){
    1ba4:	cd29                	beqz	a0,1bfe <forkfork+0x72>
    int pid = fork();
    1ba6:	00007097          	auipc	ra,0x7
    1baa:	3da080e7          	jalr	986(ra) # 8f80 <fork>
    if(pid < 0){
    1bae:	02054a63          	bltz	a0,1be2 <forkfork+0x56>
    if(pid == 0){
    1bb2:	c531                	beqz	a0,1bfe <forkfork+0x72>
    wait(&xstatus);
    1bb4:	fdc40513          	addi	a0,s0,-36
    1bb8:	00007097          	auipc	ra,0x7
    1bbc:	3d8080e7          	jalr	984(ra) # 8f90 <wait>
    if(xstatus != 0) {
    1bc0:	fdc42783          	lw	a5,-36(s0)
    1bc4:	ebbd                	bnez	a5,1c3a <forkfork+0xae>
    wait(&xstatus);
    1bc6:	fdc40513          	addi	a0,s0,-36
    1bca:	00007097          	auipc	ra,0x7
    1bce:	3c6080e7          	jalr	966(ra) # 8f90 <wait>
    if(xstatus != 0) {
    1bd2:	fdc42783          	lw	a5,-36(s0)
    1bd6:	e3b5                	bnez	a5,1c3a <forkfork+0xae>
}
    1bd8:	70a2                	ld	ra,40(sp)
    1bda:	7402                	ld	s0,32(sp)
    1bdc:	64e2                	ld	s1,24(sp)
    1bde:	6145                	addi	sp,sp,48
    1be0:	8082                	ret
      printf("%s: fork failed", s);
    1be2:	85a6                	mv	a1,s1
    1be4:	00008517          	auipc	a0,0x8
    1be8:	7b450513          	addi	a0,a0,1972 # a398 <malloc+0xdd8>
    1bec:	00008097          	auipc	ra,0x8
    1bf0:	91c080e7          	jalr	-1764(ra) # 9508 <printf>
      exit(1);
    1bf4:	4505                	li	a0,1
    1bf6:	00007097          	auipc	ra,0x7
    1bfa:	392080e7          	jalr	914(ra) # 8f88 <exit>
{
    1bfe:	0c800493          	li	s1,200
        int pid1 = fork();
    1c02:	00007097          	auipc	ra,0x7
    1c06:	37e080e7          	jalr	894(ra) # 8f80 <fork>
        if(pid1 < 0){
    1c0a:	00054f63          	bltz	a0,1c28 <forkfork+0x9c>
        if(pid1 == 0){
    1c0e:	c115                	beqz	a0,1c32 <forkfork+0xa6>
        wait(0);
    1c10:	4501                	li	a0,0
    1c12:	00007097          	auipc	ra,0x7
    1c16:	37e080e7          	jalr	894(ra) # 8f90 <wait>
      for(int j = 0; j < 200; j++){
    1c1a:	34fd                	addiw	s1,s1,-1
    1c1c:	f0fd                	bnez	s1,1c02 <forkfork+0x76>
      exit(0);
    1c1e:	4501                	li	a0,0
    1c20:	00007097          	auipc	ra,0x7
    1c24:	368080e7          	jalr	872(ra) # 8f88 <exit>
          exit(1);
    1c28:	4505                	li	a0,1
    1c2a:	00007097          	auipc	ra,0x7
    1c2e:	35e080e7          	jalr	862(ra) # 8f88 <exit>
          exit(0);
    1c32:	00007097          	auipc	ra,0x7
    1c36:	356080e7          	jalr	854(ra) # 8f88 <exit>
      printf("%s: fork in child failed", s);
    1c3a:	85a6                	mv	a1,s1
    1c3c:	00008517          	auipc	a0,0x8
    1c40:	76c50513          	addi	a0,a0,1900 # a3a8 <malloc+0xde8>
    1c44:	00008097          	auipc	ra,0x8
    1c48:	8c4080e7          	jalr	-1852(ra) # 9508 <printf>
      exit(1);
    1c4c:	4505                	li	a0,1
    1c4e:	00007097          	auipc	ra,0x7
    1c52:	33a080e7          	jalr	826(ra) # 8f88 <exit>

0000000000001c56 <reparent2>:
{
    1c56:	1101                	addi	sp,sp,-32
    1c58:	ec06                	sd	ra,24(sp)
    1c5a:	e822                	sd	s0,16(sp)
    1c5c:	e426                	sd	s1,8(sp)
    1c5e:	1000                	addi	s0,sp,32
    1c60:	32000493          	li	s1,800
    int pid1 = fork();
    1c64:	00007097          	auipc	ra,0x7
    1c68:	31c080e7          	jalr	796(ra) # 8f80 <fork>
    if(pid1 < 0){
    1c6c:	00054f63          	bltz	a0,1c8a <reparent2+0x34>
    if(pid1 == 0){
    1c70:	c915                	beqz	a0,1ca4 <reparent2+0x4e>
    wait(0);
    1c72:	4501                	li	a0,0
    1c74:	00007097          	auipc	ra,0x7
    1c78:	31c080e7          	jalr	796(ra) # 8f90 <wait>
  for(int i = 0; i < 800; i++){
    1c7c:	34fd                	addiw	s1,s1,-1
    1c7e:	f0fd                	bnez	s1,1c64 <reparent2+0xe>
  exit(0);
    1c80:	4501                	li	a0,0
    1c82:	00007097          	auipc	ra,0x7
    1c86:	306080e7          	jalr	774(ra) # 8f88 <exit>
      printf("fork failed\n");
    1c8a:	00009517          	auipc	a0,0x9
    1c8e:	8ce50513          	addi	a0,a0,-1842 # a558 <malloc+0xf98>
    1c92:	00008097          	auipc	ra,0x8
    1c96:	876080e7          	jalr	-1930(ra) # 9508 <printf>
      exit(1);
    1c9a:	4505                	li	a0,1
    1c9c:	00007097          	auipc	ra,0x7
    1ca0:	2ec080e7          	jalr	748(ra) # 8f88 <exit>
      fork();
    1ca4:	00007097          	auipc	ra,0x7
    1ca8:	2dc080e7          	jalr	732(ra) # 8f80 <fork>
      fork();
    1cac:	00007097          	auipc	ra,0x7
    1cb0:	2d4080e7          	jalr	724(ra) # 8f80 <fork>
      exit(0);
    1cb4:	4501                	li	a0,0
    1cb6:	00007097          	auipc	ra,0x7
    1cba:	2d2080e7          	jalr	722(ra) # 8f88 <exit>

0000000000001cbe <forktest>:
{
    1cbe:	7179                	addi	sp,sp,-48
    1cc0:	f406                	sd	ra,40(sp)
    1cc2:	f022                	sd	s0,32(sp)
    1cc4:	ec26                	sd	s1,24(sp)
    1cc6:	e84a                	sd	s2,16(sp)
    1cc8:	e44e                	sd	s3,8(sp)
    1cca:	1800                	addi	s0,sp,48
    1ccc:	89aa                	mv	s3,a0
  for(n=0; n<N; n++){
    1cce:	4481                	li	s1,0
    1cd0:	3e800913          	li	s2,1000
    pid = fork();
    1cd4:	00007097          	auipc	ra,0x7
    1cd8:	2ac080e7          	jalr	684(ra) # 8f80 <fork>
    if(pid < 0)
    1cdc:	02054863          	bltz	a0,1d0c <forktest+0x4e>
    if(pid == 0)
    1ce0:	c115                	beqz	a0,1d04 <forktest+0x46>
  for(n=0; n<N; n++){
    1ce2:	2485                	addiw	s1,s1,1
    1ce4:	ff2498e3          	bne	s1,s2,1cd4 <forktest+0x16>
    printf("%s: fork claimed to work 1000 times!\n", s);
    1ce8:	85ce                	mv	a1,s3
    1cea:	00008517          	auipc	a0,0x8
    1cee:	6f650513          	addi	a0,a0,1782 # a3e0 <malloc+0xe20>
    1cf2:	00008097          	auipc	ra,0x8
    1cf6:	816080e7          	jalr	-2026(ra) # 9508 <printf>
    exit(1);
    1cfa:	4505                	li	a0,1
    1cfc:	00007097          	auipc	ra,0x7
    1d00:	28c080e7          	jalr	652(ra) # 8f88 <exit>
      exit(0);
    1d04:	00007097          	auipc	ra,0x7
    1d08:	284080e7          	jalr	644(ra) # 8f88 <exit>
  if (n == 0) {
    1d0c:	cc9d                	beqz	s1,1d4a <forktest+0x8c>
  if(n == N){
    1d0e:	3e800793          	li	a5,1000
    1d12:	fcf48be3          	beq	s1,a5,1ce8 <forktest+0x2a>
  for(; n > 0; n--){
    1d16:	00905b63          	blez	s1,1d2c <forktest+0x6e>
    if(wait(0) < 0){
    1d1a:	4501                	li	a0,0
    1d1c:	00007097          	auipc	ra,0x7
    1d20:	274080e7          	jalr	628(ra) # 8f90 <wait>
    1d24:	04054163          	bltz	a0,1d66 <forktest+0xa8>
  for(; n > 0; n--){
    1d28:	34fd                	addiw	s1,s1,-1
    1d2a:	f8e5                	bnez	s1,1d1a <forktest+0x5c>
  if(wait(0) != -1){
    1d2c:	4501                	li	a0,0
    1d2e:	00007097          	auipc	ra,0x7
    1d32:	262080e7          	jalr	610(ra) # 8f90 <wait>
    1d36:	57fd                	li	a5,-1
    1d38:	04f51563          	bne	a0,a5,1d82 <forktest+0xc4>
}
    1d3c:	70a2                	ld	ra,40(sp)
    1d3e:	7402                	ld	s0,32(sp)
    1d40:	64e2                	ld	s1,24(sp)
    1d42:	6942                	ld	s2,16(sp)
    1d44:	69a2                	ld	s3,8(sp)
    1d46:	6145                	addi	sp,sp,48
    1d48:	8082                	ret
    printf("%s: no fork at all!\n", s);
    1d4a:	85ce                	mv	a1,s3
    1d4c:	00008517          	auipc	a0,0x8
    1d50:	67c50513          	addi	a0,a0,1660 # a3c8 <malloc+0xe08>
    1d54:	00007097          	auipc	ra,0x7
    1d58:	7b4080e7          	jalr	1972(ra) # 9508 <printf>
    exit(1);
    1d5c:	4505                	li	a0,1
    1d5e:	00007097          	auipc	ra,0x7
    1d62:	22a080e7          	jalr	554(ra) # 8f88 <exit>
      printf("%s: wait stopped early\n", s);
    1d66:	85ce                	mv	a1,s3
    1d68:	00008517          	auipc	a0,0x8
    1d6c:	6a050513          	addi	a0,a0,1696 # a408 <malloc+0xe48>
    1d70:	00007097          	auipc	ra,0x7
    1d74:	798080e7          	jalr	1944(ra) # 9508 <printf>
      exit(1);
    1d78:	4505                	li	a0,1
    1d7a:	00007097          	auipc	ra,0x7
    1d7e:	20e080e7          	jalr	526(ra) # 8f88 <exit>
    printf("%s: wait got too many\n", s);
    1d82:	85ce                	mv	a1,s3
    1d84:	00008517          	auipc	a0,0x8
    1d88:	69c50513          	addi	a0,a0,1692 # a420 <malloc+0xe60>
    1d8c:	00007097          	auipc	ra,0x7
    1d90:	77c080e7          	jalr	1916(ra) # 9508 <printf>
    exit(1);
    1d94:	4505                	li	a0,1
    1d96:	00007097          	auipc	ra,0x7
    1d9a:	1f2080e7          	jalr	498(ra) # 8f88 <exit>

0000000000001d9e <kernmem>:
{
    1d9e:	715d                	addi	sp,sp,-80
    1da0:	e486                	sd	ra,72(sp)
    1da2:	e0a2                	sd	s0,64(sp)
    1da4:	fc26                	sd	s1,56(sp)
    1da6:	f84a                	sd	s2,48(sp)
    1da8:	f44e                	sd	s3,40(sp)
    1daa:	f052                	sd	s4,32(sp)
    1dac:	ec56                	sd	s5,24(sp)
    1dae:	e85a                	sd	s6,16(sp)
    1db0:	0880                	addi	s0,sp,80
    1db2:	8b2a                	mv	s6,a0
  for(a = (char*)(KERNBASE); a < (char*) (KERNBASE+2000000); a += 50000){
    1db4:	40100493          	li	s1,1025
    1db8:	04d6                	slli	s1,s1,0x15
    wait(&xstatus);
    1dba:	fbc40a93          	addi	s5,s0,-68
    if(xstatus != -1)  // did kernel kill child?
    1dbe:	5a7d                	li	s4,-1
  for(a = (char*)(KERNBASE); a < (char*) (KERNBASE+2000000); a += 50000){
    1dc0:	69b1                	lui	s3,0xc
    1dc2:	35098993          	addi	s3,s3,848 # c350 <malloc+0x2d90>
    1dc6:	1007d937          	lui	s2,0x1007d
    1dca:	090e                	slli	s2,s2,0x3
    1dcc:	48090913          	addi	s2,s2,1152 # 1007d480 <__BSS_END__+0x1005eba0>
    pid = fork();
    1dd0:	00007097          	auipc	ra,0x7
    1dd4:	1b0080e7          	jalr	432(ra) # 8f80 <fork>
    if(pid < 0){
    1dd8:	02054963          	bltz	a0,1e0a <kernmem+0x6c>
    if(pid == 0){
    1ddc:	c529                	beqz	a0,1e26 <kernmem+0x88>
    wait(&xstatus);
    1dde:	8556                	mv	a0,s5
    1de0:	00007097          	auipc	ra,0x7
    1de4:	1b0080e7          	jalr	432(ra) # 8f90 <wait>
    if(xstatus != -1)  // did kernel kill child?
    1de8:	fbc42783          	lw	a5,-68(s0)
    1dec:	05479d63          	bne	a5,s4,1e46 <kernmem+0xa8>
  for(a = (char*)(KERNBASE); a < (char*) (KERNBASE+2000000); a += 50000){
    1df0:	94ce                	add	s1,s1,s3
    1df2:	fd249fe3          	bne	s1,s2,1dd0 <kernmem+0x32>
}
    1df6:	60a6                	ld	ra,72(sp)
    1df8:	6406                	ld	s0,64(sp)
    1dfa:	74e2                	ld	s1,56(sp)
    1dfc:	7942                	ld	s2,48(sp)
    1dfe:	79a2                	ld	s3,40(sp)
    1e00:	7a02                	ld	s4,32(sp)
    1e02:	6ae2                	ld	s5,24(sp)
    1e04:	6b42                	ld	s6,16(sp)
    1e06:	6161                	addi	sp,sp,80
    1e08:	8082                	ret
      printf("%s: fork failed\n", s);
    1e0a:	85da                	mv	a1,s6
    1e0c:	00008517          	auipc	a0,0x8
    1e10:	3cc50513          	addi	a0,a0,972 # a1d8 <malloc+0xc18>
    1e14:	00007097          	auipc	ra,0x7
    1e18:	6f4080e7          	jalr	1780(ra) # 9508 <printf>
      exit(1);
    1e1c:	4505                	li	a0,1
    1e1e:	00007097          	auipc	ra,0x7
    1e22:	16a080e7          	jalr	362(ra) # 8f88 <exit>
      printf("%s: oops could read %x = %x\n", a, *a);
    1e26:	0004c603          	lbu	a2,0(s1)
    1e2a:	85a6                	mv	a1,s1
    1e2c:	00008517          	auipc	a0,0x8
    1e30:	60c50513          	addi	a0,a0,1548 # a438 <malloc+0xe78>
    1e34:	00007097          	auipc	ra,0x7
    1e38:	6d4080e7          	jalr	1748(ra) # 9508 <printf>
      exit(1);
    1e3c:	4505                	li	a0,1
    1e3e:	00007097          	auipc	ra,0x7
    1e42:	14a080e7          	jalr	330(ra) # 8f88 <exit>
      exit(1);
    1e46:	4505                	li	a0,1
    1e48:	00007097          	auipc	ra,0x7
    1e4c:	140080e7          	jalr	320(ra) # 8f88 <exit>

0000000000001e50 <bigargtest>:
{
    1e50:	7179                	addi	sp,sp,-48
    1e52:	f406                	sd	ra,40(sp)
    1e54:	f022                	sd	s0,32(sp)
    1e56:	ec26                	sd	s1,24(sp)
    1e58:	1800                	addi	s0,sp,48
    1e5a:	84aa                	mv	s1,a0
  remove("bigarg-ok");
    1e5c:	00008517          	auipc	a0,0x8
    1e60:	5fc50513          	addi	a0,a0,1532 # a458 <malloc+0xe98>
    1e64:	00007097          	auipc	ra,0x7
    1e68:	1cc080e7          	jalr	460(ra) # 9030 <remove>
  pid = fork();
    1e6c:	00007097          	auipc	ra,0x7
    1e70:	114080e7          	jalr	276(ra) # 8f80 <fork>
  if(pid == 0){
    1e74:	c921                	beqz	a0,1ec4 <bigargtest+0x74>
  } else if(pid < 0){
    1e76:	0a054a63          	bltz	a0,1f2a <bigargtest+0xda>
  wait(&xstatus);
    1e7a:	fdc40513          	addi	a0,s0,-36
    1e7e:	00007097          	auipc	ra,0x7
    1e82:	112080e7          	jalr	274(ra) # 8f90 <wait>
  if(xstatus != 0)
    1e86:	fdc42503          	lw	a0,-36(s0)
    1e8a:	ed55                	bnez	a0,1f46 <bigargtest+0xf6>
  fd = open("bigarg-ok", 0);
    1e8c:	4581                	li	a1,0
    1e8e:	00008517          	auipc	a0,0x8
    1e92:	5ca50513          	addi	a0,a0,1482 # a458 <malloc+0xe98>
    1e96:	00007097          	auipc	ra,0x7
    1e9a:	132080e7          	jalr	306(ra) # 8fc8 <open>
  if(fd < 0){
    1e9e:	0a054863          	bltz	a0,1f4e <bigargtest+0xfe>
  close(fd);
    1ea2:	00007097          	auipc	ra,0x7
    1ea6:	10e080e7          	jalr	270(ra) # 8fb0 <close>
  remove("bigarg-ok");
    1eaa:	00008517          	auipc	a0,0x8
    1eae:	5ae50513          	addi	a0,a0,1454 # a458 <malloc+0xe98>
    1eb2:	00007097          	auipc	ra,0x7
    1eb6:	17e080e7          	jalr	382(ra) # 9030 <remove>
}
    1eba:	70a2                	ld	ra,40(sp)
    1ebc:	7402                	ld	s0,32(sp)
    1ebe:	64e2                	ld	s1,24(sp)
    1ec0:	6145                	addi	sp,sp,48
    1ec2:	8082                	ret
    1ec4:	0000e797          	auipc	a5,0xe
    1ec8:	9d478793          	addi	a5,a5,-1580 # f898 <args.1>
    1ecc:	0000e697          	auipc	a3,0xe
    1ed0:	ac468693          	addi	a3,a3,-1340 # f990 <args.1+0xf8>
      args[i] = "bigargs test: failed\n                                                                                                                                                                                                       ";
    1ed4:	00008717          	auipc	a4,0x8
    1ed8:	59470713          	addi	a4,a4,1428 # a468 <malloc+0xea8>
    1edc:	e398                	sd	a4,0(a5)
    for(i = 0; i < MAXARG-1; i++)
    1ede:	07a1                	addi	a5,a5,8
    1ee0:	fed79ee3          	bne	a5,a3,1edc <bigargtest+0x8c>
    args[MAXARG-1] = 0;
    1ee4:	0000e797          	auipc	a5,0xe
    1ee8:	aa07b623          	sd	zero,-1364(a5) # f990 <args.1+0xf8>
    exec("echo", args);
    1eec:	0000e597          	auipc	a1,0xe
    1ef0:	9ac58593          	addi	a1,a1,-1620 # f898 <args.1>
    1ef4:	00008517          	auipc	a0,0x8
    1ef8:	81450513          	addi	a0,a0,-2028 # 9708 <malloc+0x148>
    1efc:	00007097          	auipc	ra,0x7
    1f00:	0c4080e7          	jalr	196(ra) # 8fc0 <exec>
    fd = open("bigarg-ok", O_CREATE);
    1f04:	20000593          	li	a1,512
    1f08:	00008517          	auipc	a0,0x8
    1f0c:	55050513          	addi	a0,a0,1360 # a458 <malloc+0xe98>
    1f10:	00007097          	auipc	ra,0x7
    1f14:	0b8080e7          	jalr	184(ra) # 8fc8 <open>
    close(fd);
    1f18:	00007097          	auipc	ra,0x7
    1f1c:	098080e7          	jalr	152(ra) # 8fb0 <close>
    exit(0);
    1f20:	4501                	li	a0,0
    1f22:	00007097          	auipc	ra,0x7
    1f26:	066080e7          	jalr	102(ra) # 8f88 <exit>
    printf("%s: bigargtest: fork failed\n", s);
    1f2a:	85a6                	mv	a1,s1
    1f2c:	00008517          	auipc	a0,0x8
    1f30:	61c50513          	addi	a0,a0,1564 # a548 <malloc+0xf88>
    1f34:	00007097          	auipc	ra,0x7
    1f38:	5d4080e7          	jalr	1492(ra) # 9508 <printf>
    exit(1);
    1f3c:	4505                	li	a0,1
    1f3e:	00007097          	auipc	ra,0x7
    1f42:	04a080e7          	jalr	74(ra) # 8f88 <exit>
    exit(xstatus);
    1f46:	00007097          	auipc	ra,0x7
    1f4a:	042080e7          	jalr	66(ra) # 8f88 <exit>
    printf("%s: bigarg test failed!\n", s);
    1f4e:	85a6                	mv	a1,s1
    1f50:	00008517          	auipc	a0,0x8
    1f54:	61850513          	addi	a0,a0,1560 # a568 <malloc+0xfa8>
    1f58:	00007097          	auipc	ra,0x7
    1f5c:	5b0080e7          	jalr	1456(ra) # 9508 <printf>
    exit(1);
    1f60:	4505                	li	a0,1
    1f62:	00007097          	auipc	ra,0x7
    1f66:	026080e7          	jalr	38(ra) # 8f88 <exit>

0000000000001f6a <stacktest>:
{
    1f6a:	7179                	addi	sp,sp,-48
    1f6c:	f406                	sd	ra,40(sp)
    1f6e:	f022                	sd	s0,32(sp)
    1f70:	ec26                	sd	s1,24(sp)
    1f72:	1800                	addi	s0,sp,48
    1f74:	84aa                	mv	s1,a0
  pid = fork();
    1f76:	00007097          	auipc	ra,0x7
    1f7a:	00a080e7          	jalr	10(ra) # 8f80 <fork>
  if(pid == 0) {
    1f7e:	c115                	beqz	a0,1fa2 <stacktest+0x38>
  } else if(pid < 0){
    1f80:	04054363          	bltz	a0,1fc6 <stacktest+0x5c>
  wait(&xstatus);
    1f84:	fdc40513          	addi	a0,s0,-36
    1f88:	00007097          	auipc	ra,0x7
    1f8c:	008080e7          	jalr	8(ra) # 8f90 <wait>
  if(xstatus == -1)  // kernel killed child?
    1f90:	fdc42503          	lw	a0,-36(s0)
    1f94:	57fd                	li	a5,-1
    1f96:	04f50663          	beq	a0,a5,1fe2 <stacktest+0x78>
    exit(xstatus);
    1f9a:	00007097          	auipc	ra,0x7
    1f9e:	fee080e7          	jalr	-18(ra) # 8f88 <exit>

static inline uint64
r_sp()
{
  uint64 x;
  asm volatile("mv %0, sp" : "=r" (x) );
    1fa2:	870a                	mv	a4,sp
    printf("%s: stacktest: read below stack %p\n", *sp);
    1fa4:	77fd                	lui	a5,0xfffff
    1fa6:	97ba                	add	a5,a5,a4
    1fa8:	0007c583          	lbu	a1,0(a5) # fffffffffffff000 <__BSS_END__+0xfffffffffffe0720>
    1fac:	00008517          	auipc	a0,0x8
    1fb0:	5dc50513          	addi	a0,a0,1500 # a588 <malloc+0xfc8>
    1fb4:	00007097          	auipc	ra,0x7
    1fb8:	554080e7          	jalr	1364(ra) # 9508 <printf>
    exit(1);
    1fbc:	4505                	li	a0,1
    1fbe:	00007097          	auipc	ra,0x7
    1fc2:	fca080e7          	jalr	-54(ra) # 8f88 <exit>
    printf("%s: fork failed\n", s);
    1fc6:	85a6                	mv	a1,s1
    1fc8:	00008517          	auipc	a0,0x8
    1fcc:	21050513          	addi	a0,a0,528 # a1d8 <malloc+0xc18>
    1fd0:	00007097          	auipc	ra,0x7
    1fd4:	538080e7          	jalr	1336(ra) # 9508 <printf>
    exit(1);
    1fd8:	4505                	li	a0,1
    1fda:	00007097          	auipc	ra,0x7
    1fde:	fae080e7          	jalr	-82(ra) # 8f88 <exit>
    exit(0);
    1fe2:	4501                	li	a0,0
    1fe4:	00007097          	auipc	ra,0x7
    1fe8:	fa4080e7          	jalr	-92(ra) # 8f88 <exit>

0000000000001fec <copyinstr3>:
{
    1fec:	7179                	addi	sp,sp,-48
    1fee:	f406                	sd	ra,40(sp)
    1ff0:	f022                	sd	s0,32(sp)
    1ff2:	ec26                	sd	s1,24(sp)
    1ff4:	1800                	addi	s0,sp,48
  sbrk(8192);
    1ff6:	6509                	lui	a0,0x2
    1ff8:	00007097          	auipc	ra,0x7
    1ffc:	000080e7          	jalr	ra # 8ff8 <sbrk>
  uint64 top = (uint64) sbrk(0);
    2000:	4501                	li	a0,0
    2002:	00007097          	auipc	ra,0x7
    2006:	ff6080e7          	jalr	-10(ra) # 8ff8 <sbrk>
  if((top % PGSIZE) != 0){
    200a:	03451793          	slli	a5,a0,0x34
    200e:	eba5                	bnez	a5,207e <copyinstr3+0x92>
  top = (uint64) sbrk(0);
    2010:	4501                	li	a0,0
    2012:	00007097          	auipc	ra,0x7
    2016:	fe6080e7          	jalr	-26(ra) # 8ff8 <sbrk>
  if(top % PGSIZE){
    201a:	03451793          	slli	a5,a0,0x34
    201e:	ebb5                	bnez	a5,2092 <copyinstr3+0xa6>
  char *b = (char *) (top - 1);
    2020:	fff50493          	addi	s1,a0,-1 # 1fff <copyinstr3+0x13>
  *b = 'x';
    2024:	07800793          	li	a5,120
    2028:	fef50fa3          	sb	a5,-1(a0)
  int ret = remove(b);
    202c:	8526                	mv	a0,s1
    202e:	00007097          	auipc	ra,0x7
    2032:	002080e7          	jalr	2(ra) # 9030 <remove>
  if(ret != -1){
    2036:	57fd                	li	a5,-1
    2038:	06f51a63          	bne	a0,a5,20ac <copyinstr3+0xc0>
  int fd = open(b, O_CREATE | O_WRONLY);
    203c:	20100593          	li	a1,513
    2040:	8526                	mv	a0,s1
    2042:	00007097          	auipc	ra,0x7
    2046:	f86080e7          	jalr	-122(ra) # 8fc8 <open>
  if(fd != -1){
    204a:	57fd                	li	a5,-1
    204c:	06f51f63          	bne	a0,a5,20ca <copyinstr3+0xde>
  char *args[] = { "xx", 0 };
    2050:	00009797          	auipc	a5,0x9
    2054:	ce878793          	addi	a5,a5,-792 # ad38 <malloc+0x1778>
    2058:	fcf43823          	sd	a5,-48(s0)
    205c:	fc043c23          	sd	zero,-40(s0)
  ret = exec(b, args);
    2060:	fd040593          	addi	a1,s0,-48
    2064:	8526                	mv	a0,s1
    2066:	00007097          	auipc	ra,0x7
    206a:	f5a080e7          	jalr	-166(ra) # 8fc0 <exec>
  if(ret != -1){
    206e:	57fd                	li	a5,-1
    2070:	06f51c63          	bne	a0,a5,20e8 <copyinstr3+0xfc>
}
    2074:	70a2                	ld	ra,40(sp)
    2076:	7402                	ld	s0,32(sp)
    2078:	64e2                	ld	s1,24(sp)
    207a:	6145                	addi	sp,sp,48
    207c:	8082                	ret
    sbrk(PGSIZE - (top % PGSIZE));
    207e:	0347d513          	srli	a0,a5,0x34
    2082:	6785                	lui	a5,0x1
    2084:	40a7853b          	subw	a0,a5,a0
    2088:	00007097          	auipc	ra,0x7
    208c:	f70080e7          	jalr	-144(ra) # 8ff8 <sbrk>
    2090:	b741                	j	2010 <copyinstr3+0x24>
    printf("oops\n");
    2092:	00008517          	auipc	a0,0x8
    2096:	51e50513          	addi	a0,a0,1310 # a5b0 <malloc+0xff0>
    209a:	00007097          	auipc	ra,0x7
    209e:	46e080e7          	jalr	1134(ra) # 9508 <printf>
    exit(1);
    20a2:	4505                	li	a0,1
    20a4:	00007097          	auipc	ra,0x7
    20a8:	ee4080e7          	jalr	-284(ra) # 8f88 <exit>
    printf("remove(%s) returned %d, not -1\n", b, ret);
    20ac:	862a                	mv	a2,a0
    20ae:	85a6                	mv	a1,s1
    20b0:	00008517          	auipc	a0,0x8
    20b4:	07050513          	addi	a0,a0,112 # a120 <malloc+0xb60>
    20b8:	00007097          	auipc	ra,0x7
    20bc:	450080e7          	jalr	1104(ra) # 9508 <printf>
    exit(1);
    20c0:	4505                	li	a0,1
    20c2:	00007097          	auipc	ra,0x7
    20c6:	ec6080e7          	jalr	-314(ra) # 8f88 <exit>
    printf("open(%s) returned %d, not -1\n", b, fd);
    20ca:	862a                	mv	a2,a0
    20cc:	85a6                	mv	a1,s1
    20ce:	00008517          	auipc	a0,0x8
    20d2:	07250513          	addi	a0,a0,114 # a140 <malloc+0xb80>
    20d6:	00007097          	auipc	ra,0x7
    20da:	432080e7          	jalr	1074(ra) # 9508 <printf>
    exit(1);
    20de:	4505                	li	a0,1
    20e0:	00007097          	auipc	ra,0x7
    20e4:	ea8080e7          	jalr	-344(ra) # 8f88 <exit>
    printf("exec(%s) returned %d, not -1\n", b, fd);
    20e8:	567d                	li	a2,-1
    20ea:	85a6                	mv	a1,s1
    20ec:	00008517          	auipc	a0,0x8
    20f0:	07450513          	addi	a0,a0,116 # a160 <malloc+0xba0>
    20f4:	00007097          	auipc	ra,0x7
    20f8:	414080e7          	jalr	1044(ra) # 9508 <printf>
    exit(1);
    20fc:	4505                	li	a0,1
    20fe:	00007097          	auipc	ra,0x7
    2102:	e8a080e7          	jalr	-374(ra) # 8f88 <exit>

0000000000002106 <sbrkbasic>:
{
    2106:	7139                	addi	sp,sp,-64
    2108:	fc06                	sd	ra,56(sp)
    210a:	f822                	sd	s0,48(sp)
    210c:	f426                	sd	s1,40(sp)
    210e:	f04a                	sd	s2,32(sp)
    2110:	ec4e                	sd	s3,24(sp)
    2112:	e852                	sd	s4,16(sp)
    2114:	0080                	addi	s0,sp,64
    2116:	8a2a                	mv	s4,a0
  pid = fork();
    2118:	00007097          	auipc	ra,0x7
    211c:	e68080e7          	jalr	-408(ra) # 8f80 <fork>
  if(pid < 0){
    2120:	02054c63          	bltz	a0,2158 <sbrkbasic+0x52>
  if(pid == 0){
    2124:	ed21                	bnez	a0,217c <sbrkbasic+0x76>
    a = sbrk(TOOMUCH);
    2126:	40000537          	lui	a0,0x40000
    212a:	00007097          	auipc	ra,0x7
    212e:	ece080e7          	jalr	-306(ra) # 8ff8 <sbrk>
    if(a == (char*)0xffffffffffffffffL){
    2132:	57fd                	li	a5,-1
    2134:	02f50f63          	beq	a0,a5,2172 <sbrkbasic+0x6c>
    for(b = a; b < a+TOOMUCH; b += 4096){
    2138:	400007b7          	lui	a5,0x40000
    213c:	97aa                	add	a5,a5,a0
      *b = 99;
    213e:	06300693          	li	a3,99
    for(b = a; b < a+TOOMUCH; b += 4096){
    2142:	6705                	lui	a4,0x1
      *b = 99;
    2144:	00d50023          	sb	a3,0(a0) # 40000000 <__BSS_END__+0x3ffe1720>
    for(b = a; b < a+TOOMUCH; b += 4096){
    2148:	953a                	add	a0,a0,a4
    214a:	fef51de3          	bne	a0,a5,2144 <sbrkbasic+0x3e>
    exit(1);
    214e:	4505                	li	a0,1
    2150:	00007097          	auipc	ra,0x7
    2154:	e38080e7          	jalr	-456(ra) # 8f88 <exit>
    printf("fork failed in sbrkbasic\n");
    2158:	00008517          	auipc	a0,0x8
    215c:	46050513          	addi	a0,a0,1120 # a5b8 <malloc+0xff8>
    2160:	00007097          	auipc	ra,0x7
    2164:	3a8080e7          	jalr	936(ra) # 9508 <printf>
    exit(1);
    2168:	4505                	li	a0,1
    216a:	00007097          	auipc	ra,0x7
    216e:	e1e080e7          	jalr	-482(ra) # 8f88 <exit>
      exit(0);
    2172:	4501                	li	a0,0
    2174:	00007097          	auipc	ra,0x7
    2178:	e14080e7          	jalr	-492(ra) # 8f88 <exit>
  wait(&xstatus);
    217c:	fcc40513          	addi	a0,s0,-52
    2180:	00007097          	auipc	ra,0x7
    2184:	e10080e7          	jalr	-496(ra) # 8f90 <wait>
  if(xstatus == 1){
    2188:	fcc42703          	lw	a4,-52(s0)
    218c:	4785                	li	a5,1
    218e:	00f70d63          	beq	a4,a5,21a8 <sbrkbasic+0xa2>
  a = sbrk(0);
    2192:	4501                	li	a0,0
    2194:	00007097          	auipc	ra,0x7
    2198:	e64080e7          	jalr	-412(ra) # 8ff8 <sbrk>
    219c:	84aa                	mv	s1,a0
  for(i = 0; i < 5000; i++){
    219e:	4901                	li	s2,0
    21a0:	6985                	lui	s3,0x1
    21a2:	38898993          	addi	s3,s3,904 # 1388 <copyinstr2+0x78>
    21a6:	a005                	j	21c6 <sbrkbasic+0xc0>
    printf("%s: too much memory allocated!\n", s);
    21a8:	85d2                	mv	a1,s4
    21aa:	00008517          	auipc	a0,0x8
    21ae:	42e50513          	addi	a0,a0,1070 # a5d8 <malloc+0x1018>
    21b2:	00007097          	auipc	ra,0x7
    21b6:	356080e7          	jalr	854(ra) # 9508 <printf>
    exit(1);
    21ba:	4505                	li	a0,1
    21bc:	00007097          	auipc	ra,0x7
    21c0:	dcc080e7          	jalr	-564(ra) # 8f88 <exit>
    a = b + 1;
    21c4:	84be                	mv	s1,a5
    b = sbrk(1);
    21c6:	4505                	li	a0,1
    21c8:	00007097          	auipc	ra,0x7
    21cc:	e30080e7          	jalr	-464(ra) # 8ff8 <sbrk>
    if(b != a){
    21d0:	04951c63          	bne	a0,s1,2228 <sbrkbasic+0x122>
    *b = 1;
    21d4:	4785                	li	a5,1
    21d6:	00f48023          	sb	a5,0(s1)
    a = b + 1;
    21da:	00148793          	addi	a5,s1,1
  for(i = 0; i < 5000; i++){
    21de:	2905                	addiw	s2,s2,1
    21e0:	ff3912e3          	bne	s2,s3,21c4 <sbrkbasic+0xbe>
  pid = fork();
    21e4:	00007097          	auipc	ra,0x7
    21e8:	d9c080e7          	jalr	-612(ra) # 8f80 <fork>
    21ec:	892a                	mv	s2,a0
  if(pid < 0){
    21ee:	04054d63          	bltz	a0,2248 <sbrkbasic+0x142>
  c = sbrk(1);
    21f2:	4505                	li	a0,1
    21f4:	00007097          	auipc	ra,0x7
    21f8:	e04080e7          	jalr	-508(ra) # 8ff8 <sbrk>
  c = sbrk(1);
    21fc:	4505                	li	a0,1
    21fe:	00007097          	auipc	ra,0x7
    2202:	dfa080e7          	jalr	-518(ra) # 8ff8 <sbrk>
  if(c != a + 1){
    2206:	0489                	addi	s1,s1,2
    2208:	04a48e63          	beq	s1,a0,2264 <sbrkbasic+0x15e>
    printf("%s: sbrk test failed post-fork\n", s);
    220c:	85d2                	mv	a1,s4
    220e:	00008517          	auipc	a0,0x8
    2212:	42a50513          	addi	a0,a0,1066 # a638 <malloc+0x1078>
    2216:	00007097          	auipc	ra,0x7
    221a:	2f2080e7          	jalr	754(ra) # 9508 <printf>
    exit(1);
    221e:	4505                	li	a0,1
    2220:	00007097          	auipc	ra,0x7
    2224:	d68080e7          	jalr	-664(ra) # 8f88 <exit>
      printf("%s: sbrk test failed %d %x %x\n", i, a, b);
    2228:	86aa                	mv	a3,a0
    222a:	8626                	mv	a2,s1
    222c:	85ca                	mv	a1,s2
    222e:	00008517          	auipc	a0,0x8
    2232:	3ca50513          	addi	a0,a0,970 # a5f8 <malloc+0x1038>
    2236:	00007097          	auipc	ra,0x7
    223a:	2d2080e7          	jalr	722(ra) # 9508 <printf>
      exit(1);
    223e:	4505                	li	a0,1
    2240:	00007097          	auipc	ra,0x7
    2244:	d48080e7          	jalr	-696(ra) # 8f88 <exit>
    printf("%s: sbrk test fork failed\n", s);
    2248:	85d2                	mv	a1,s4
    224a:	00008517          	auipc	a0,0x8
    224e:	3ce50513          	addi	a0,a0,974 # a618 <malloc+0x1058>
    2252:	00007097          	auipc	ra,0x7
    2256:	2b6080e7          	jalr	694(ra) # 9508 <printf>
    exit(1);
    225a:	4505                	li	a0,1
    225c:	00007097          	auipc	ra,0x7
    2260:	d2c080e7          	jalr	-724(ra) # 8f88 <exit>
  if(pid == 0)
    2264:	00091763          	bnez	s2,2272 <sbrkbasic+0x16c>
    exit(0);
    2268:	4501                	li	a0,0
    226a:	00007097          	auipc	ra,0x7
    226e:	d1e080e7          	jalr	-738(ra) # 8f88 <exit>
  wait(&xstatus);
    2272:	fcc40513          	addi	a0,s0,-52
    2276:	00007097          	auipc	ra,0x7
    227a:	d1a080e7          	jalr	-742(ra) # 8f90 <wait>
  exit(xstatus);
    227e:	fcc42503          	lw	a0,-52(s0)
    2282:	00007097          	auipc	ra,0x7
    2286:	d06080e7          	jalr	-762(ra) # 8f88 <exit>

000000000000228a <sbrkmuch>:
{
    228a:	7179                	addi	sp,sp,-48
    228c:	f406                	sd	ra,40(sp)
    228e:	f022                	sd	s0,32(sp)
    2290:	ec26                	sd	s1,24(sp)
    2292:	e84a                	sd	s2,16(sp)
    2294:	e44e                	sd	s3,8(sp)
    2296:	e052                	sd	s4,0(sp)
    2298:	1800                	addi	s0,sp,48
    229a:	89aa                	mv	s3,a0
  oldbrk = sbrk(0);
    229c:	4501                	li	a0,0
    229e:	00007097          	auipc	ra,0x7
    22a2:	d5a080e7          	jalr	-678(ra) # 8ff8 <sbrk>
    22a6:	892a                	mv	s2,a0
  a = sbrk(0);
    22a8:	4501                	li	a0,0
    22aa:	00007097          	auipc	ra,0x7
    22ae:	d4e080e7          	jalr	-690(ra) # 8ff8 <sbrk>
    22b2:	84aa                	mv	s1,a0
  p = sbrk(amt);
    22b4:	00300537          	lui	a0,0x300
    22b8:	9d05                	subw	a0,a0,s1
    22ba:	00007097          	auipc	ra,0x7
    22be:	d3e080e7          	jalr	-706(ra) # 8ff8 <sbrk>
  if (p != a) {
    22c2:	0ca49863          	bne	s1,a0,2392 <sbrkmuch+0x108>
  char *eee = sbrk(0);
    22c6:	4501                	li	a0,0
    22c8:	00007097          	auipc	ra,0x7
    22cc:	d30080e7          	jalr	-720(ra) # 8ff8 <sbrk>
    22d0:	87aa                	mv	a5,a0
  for(char *pp = a; pp < eee; pp += 4096)
    22d2:	00a4f963          	bgeu	s1,a0,22e4 <sbrkmuch+0x5a>
    *pp = 1;
    22d6:	4685                	li	a3,1
  for(char *pp = a; pp < eee; pp += 4096)
    22d8:	6705                	lui	a4,0x1
    *pp = 1;
    22da:	00d48023          	sb	a3,0(s1)
  for(char *pp = a; pp < eee; pp += 4096)
    22de:	94ba                	add	s1,s1,a4
    22e0:	fef4ede3          	bltu	s1,a5,22da <sbrkmuch+0x50>
  *lastaddr = 99;
    22e4:	003007b7          	lui	a5,0x300
    22e8:	06300713          	li	a4,99
    22ec:	fee78fa3          	sb	a4,-1(a5) # 2fffff <__BSS_END__+0x2e171f>
  a = sbrk(0);
    22f0:	4501                	li	a0,0
    22f2:	00007097          	auipc	ra,0x7
    22f6:	d06080e7          	jalr	-762(ra) # 8ff8 <sbrk>
    22fa:	84aa                	mv	s1,a0
  c = sbrk(-PGSIZE);
    22fc:	757d                	lui	a0,0xfffff
    22fe:	00007097          	auipc	ra,0x7
    2302:	cfa080e7          	jalr	-774(ra) # 8ff8 <sbrk>
  if(c == (char*)0xffffffffffffffffL){
    2306:	57fd                	li	a5,-1
    2308:	0af50363          	beq	a0,a5,23ae <sbrkmuch+0x124>
  c = sbrk(0);
    230c:	4501                	li	a0,0
    230e:	00007097          	auipc	ra,0x7
    2312:	cea080e7          	jalr	-790(ra) # 8ff8 <sbrk>
  if(c != a - PGSIZE){
    2316:	77fd                	lui	a5,0xfffff
    2318:	97a6                	add	a5,a5,s1
    231a:	0af51863          	bne	a0,a5,23ca <sbrkmuch+0x140>
  a = sbrk(0);
    231e:	4501                	li	a0,0
    2320:	00007097          	auipc	ra,0x7
    2324:	cd8080e7          	jalr	-808(ra) # 8ff8 <sbrk>
    2328:	84aa                	mv	s1,a0
  c = sbrk(PGSIZE);
    232a:	6505                	lui	a0,0x1
    232c:	00007097          	auipc	ra,0x7
    2330:	ccc080e7          	jalr	-820(ra) # 8ff8 <sbrk>
    2334:	8a2a                	mv	s4,a0
  if(c != a || sbrk(0) != a + PGSIZE){
    2336:	0aa49963          	bne	s1,a0,23e8 <sbrkmuch+0x15e>
    233a:	4501                	li	a0,0
    233c:	00007097          	auipc	ra,0x7
    2340:	cbc080e7          	jalr	-836(ra) # 8ff8 <sbrk>
    2344:	6785                	lui	a5,0x1
    2346:	97a6                	add	a5,a5,s1
    2348:	0af51063          	bne	a0,a5,23e8 <sbrkmuch+0x15e>
  if(*lastaddr == 99){
    234c:	003007b7          	lui	a5,0x300
    2350:	fff7c703          	lbu	a4,-1(a5) # 2fffff <__BSS_END__+0x2e171f>
    2354:	06300793          	li	a5,99
    2358:	0af70763          	beq	a4,a5,2406 <sbrkmuch+0x17c>
  a = sbrk(0);
    235c:	4501                	li	a0,0
    235e:	00007097          	auipc	ra,0x7
    2362:	c9a080e7          	jalr	-870(ra) # 8ff8 <sbrk>
    2366:	84aa                	mv	s1,a0
  c = sbrk(-(sbrk(0) - oldbrk));
    2368:	4501                	li	a0,0
    236a:	00007097          	auipc	ra,0x7
    236e:	c8e080e7          	jalr	-882(ra) # 8ff8 <sbrk>
    2372:	40a9053b          	subw	a0,s2,a0
    2376:	00007097          	auipc	ra,0x7
    237a:	c82080e7          	jalr	-894(ra) # 8ff8 <sbrk>
  if(c != a){
    237e:	0aa49263          	bne	s1,a0,2422 <sbrkmuch+0x198>
}
    2382:	70a2                	ld	ra,40(sp)
    2384:	7402                	ld	s0,32(sp)
    2386:	64e2                	ld	s1,24(sp)
    2388:	6942                	ld	s2,16(sp)
    238a:	69a2                	ld	s3,8(sp)
    238c:	6a02                	ld	s4,0(sp)
    238e:	6145                	addi	sp,sp,48
    2390:	8082                	ret
    printf("%s: sbrk test failed to grow big address space; enough phys mem?\n", s);
    2392:	85ce                	mv	a1,s3
    2394:	00008517          	auipc	a0,0x8
    2398:	2c450513          	addi	a0,a0,708 # a658 <malloc+0x1098>
    239c:	00007097          	auipc	ra,0x7
    23a0:	16c080e7          	jalr	364(ra) # 9508 <printf>
    exit(1);
    23a4:	4505                	li	a0,1
    23a6:	00007097          	auipc	ra,0x7
    23aa:	be2080e7          	jalr	-1054(ra) # 8f88 <exit>
    printf("%s: sbrk could not deallocate\n", s);
    23ae:	85ce                	mv	a1,s3
    23b0:	00008517          	auipc	a0,0x8
    23b4:	2f050513          	addi	a0,a0,752 # a6a0 <malloc+0x10e0>
    23b8:	00007097          	auipc	ra,0x7
    23bc:	150080e7          	jalr	336(ra) # 9508 <printf>
    exit(1);
    23c0:	4505                	li	a0,1
    23c2:	00007097          	auipc	ra,0x7
    23c6:	bc6080e7          	jalr	-1082(ra) # 8f88 <exit>
    printf("%s: sbrk deallocation produced wrong address, a %x c %x\n", a, c);
    23ca:	862a                	mv	a2,a0
    23cc:	85a6                	mv	a1,s1
    23ce:	00008517          	auipc	a0,0x8
    23d2:	2f250513          	addi	a0,a0,754 # a6c0 <malloc+0x1100>
    23d6:	00007097          	auipc	ra,0x7
    23da:	132080e7          	jalr	306(ra) # 9508 <printf>
    exit(1);
    23de:	4505                	li	a0,1
    23e0:	00007097          	auipc	ra,0x7
    23e4:	ba8080e7          	jalr	-1112(ra) # 8f88 <exit>
    printf("%s: sbrk re-allocation failed, a %x c %x\n", a, c);
    23e8:	8652                	mv	a2,s4
    23ea:	85a6                	mv	a1,s1
    23ec:	00008517          	auipc	a0,0x8
    23f0:	31450513          	addi	a0,a0,788 # a700 <malloc+0x1140>
    23f4:	00007097          	auipc	ra,0x7
    23f8:	114080e7          	jalr	276(ra) # 9508 <printf>
    exit(1);
    23fc:	4505                	li	a0,1
    23fe:	00007097          	auipc	ra,0x7
    2402:	b8a080e7          	jalr	-1142(ra) # 8f88 <exit>
    printf("%s: sbrk de-allocation didn't really deallocate\n", s);
    2406:	85ce                	mv	a1,s3
    2408:	00008517          	auipc	a0,0x8
    240c:	32850513          	addi	a0,a0,808 # a730 <malloc+0x1170>
    2410:	00007097          	auipc	ra,0x7
    2414:	0f8080e7          	jalr	248(ra) # 9508 <printf>
    exit(1);
    2418:	4505                	li	a0,1
    241a:	00007097          	auipc	ra,0x7
    241e:	b6e080e7          	jalr	-1170(ra) # 8f88 <exit>
    printf("%s: sbrk downsize failed, a %x c %x\n", a, c);
    2422:	862a                	mv	a2,a0
    2424:	85a6                	mv	a1,s1
    2426:	00008517          	auipc	a0,0x8
    242a:	34250513          	addi	a0,a0,834 # a768 <malloc+0x11a8>
    242e:	00007097          	auipc	ra,0x7
    2432:	0da080e7          	jalr	218(ra) # 9508 <printf>
    exit(1);
    2436:	4505                	li	a0,1
    2438:	00007097          	auipc	ra,0x7
    243c:	b50080e7          	jalr	-1200(ra) # 8f88 <exit>

0000000000002440 <sbrkarg>:
{
    2440:	7179                	addi	sp,sp,-48
    2442:	f406                	sd	ra,40(sp)
    2444:	f022                	sd	s0,32(sp)
    2446:	ec26                	sd	s1,24(sp)
    2448:	e84a                	sd	s2,16(sp)
    244a:	e44e                	sd	s3,8(sp)
    244c:	1800                	addi	s0,sp,48
    244e:	89aa                	mv	s3,a0
  a = sbrk(PGSIZE);
    2450:	6505                	lui	a0,0x1
    2452:	00007097          	auipc	ra,0x7
    2456:	ba6080e7          	jalr	-1114(ra) # 8ff8 <sbrk>
    245a:	892a                	mv	s2,a0
  fd = open("sbrk", O_CREATE|O_WRONLY);
    245c:	20100593          	li	a1,513
    2460:	00008517          	auipc	a0,0x8
    2464:	33050513          	addi	a0,a0,816 # a790 <malloc+0x11d0>
    2468:	00007097          	auipc	ra,0x7
    246c:	b60080e7          	jalr	-1184(ra) # 8fc8 <open>
    2470:	84aa                	mv	s1,a0
  remove("sbrk");
    2472:	00008517          	auipc	a0,0x8
    2476:	31e50513          	addi	a0,a0,798 # a790 <malloc+0x11d0>
    247a:	00007097          	auipc	ra,0x7
    247e:	bb6080e7          	jalr	-1098(ra) # 9030 <remove>
  if(fd < 0)  {
    2482:	0404c163          	bltz	s1,24c4 <sbrkarg+0x84>
  if ((n = write(fd, a, PGSIZE)) < 0) {
    2486:	6605                	lui	a2,0x1
    2488:	85ca                	mv	a1,s2
    248a:	8526                	mv	a0,s1
    248c:	00007097          	auipc	ra,0x7
    2490:	b1c080e7          	jalr	-1252(ra) # 8fa8 <write>
    2494:	04054663          	bltz	a0,24e0 <sbrkarg+0xa0>
  close(fd);
    2498:	8526                	mv	a0,s1
    249a:	00007097          	auipc	ra,0x7
    249e:	b16080e7          	jalr	-1258(ra) # 8fb0 <close>
  a = sbrk(PGSIZE);
    24a2:	6505                	lui	a0,0x1
    24a4:	00007097          	auipc	ra,0x7
    24a8:	b54080e7          	jalr	-1196(ra) # 8ff8 <sbrk>
  if(pipe((int *) a) != 0){
    24ac:	00007097          	auipc	ra,0x7
    24b0:	aec080e7          	jalr	-1300(ra) # 8f98 <pipe>
    24b4:	e521                	bnez	a0,24fc <sbrkarg+0xbc>
}
    24b6:	70a2                	ld	ra,40(sp)
    24b8:	7402                	ld	s0,32(sp)
    24ba:	64e2                	ld	s1,24(sp)
    24bc:	6942                	ld	s2,16(sp)
    24be:	69a2                	ld	s3,8(sp)
    24c0:	6145                	addi	sp,sp,48
    24c2:	8082                	ret
    printf("%s: open sbrk failed\n", s);
    24c4:	85ce                	mv	a1,s3
    24c6:	00008517          	auipc	a0,0x8
    24ca:	2d250513          	addi	a0,a0,722 # a798 <malloc+0x11d8>
    24ce:	00007097          	auipc	ra,0x7
    24d2:	03a080e7          	jalr	58(ra) # 9508 <printf>
    exit(1);
    24d6:	4505                	li	a0,1
    24d8:	00007097          	auipc	ra,0x7
    24dc:	ab0080e7          	jalr	-1360(ra) # 8f88 <exit>
    printf("%s: write sbrk failed\n", s);
    24e0:	85ce                	mv	a1,s3
    24e2:	00008517          	auipc	a0,0x8
    24e6:	2ce50513          	addi	a0,a0,718 # a7b0 <malloc+0x11f0>
    24ea:	00007097          	auipc	ra,0x7
    24ee:	01e080e7          	jalr	30(ra) # 9508 <printf>
    exit(1);
    24f2:	4505                	li	a0,1
    24f4:	00007097          	auipc	ra,0x7
    24f8:	a94080e7          	jalr	-1388(ra) # 8f88 <exit>
    printf("%s: pipe() failed\n", s);
    24fc:	85ce                	mv	a1,s3
    24fe:	00008517          	auipc	a0,0x8
    2502:	de250513          	addi	a0,a0,-542 # a2e0 <malloc+0xd20>
    2506:	00007097          	auipc	ra,0x7
    250a:	002080e7          	jalr	2(ra) # 9508 <printf>
    exit(1);
    250e:	4505                	li	a0,1
    2510:	00007097          	auipc	ra,0x7
    2514:	a78080e7          	jalr	-1416(ra) # 8f88 <exit>

0000000000002518 <argptest>:
{
    2518:	1101                	addi	sp,sp,-32
    251a:	ec06                	sd	ra,24(sp)
    251c:	e822                	sd	s0,16(sp)
    251e:	e426                	sd	s1,8(sp)
    2520:	e04a                	sd	s2,0(sp)
    2522:	1000                	addi	s0,sp,32
    2524:	892a                	mv	s2,a0
  fd = open("init", O_RDONLY);
    2526:	4581                	li	a1,0
    2528:	00008517          	auipc	a0,0x8
    252c:	2a050513          	addi	a0,a0,672 # a7c8 <malloc+0x1208>
    2530:	00007097          	auipc	ra,0x7
    2534:	a98080e7          	jalr	-1384(ra) # 8fc8 <open>
  if (fd < 0) {
    2538:	02054b63          	bltz	a0,256e <argptest+0x56>
    253c:	84aa                	mv	s1,a0
  read(fd, sbrk(0) - 1, -1);
    253e:	4501                	li	a0,0
    2540:	00007097          	auipc	ra,0x7
    2544:	ab8080e7          	jalr	-1352(ra) # 8ff8 <sbrk>
    2548:	567d                	li	a2,-1
    254a:	fff50593          	addi	a1,a0,-1
    254e:	8526                	mv	a0,s1
    2550:	00007097          	auipc	ra,0x7
    2554:	a50080e7          	jalr	-1456(ra) # 8fa0 <read>
  close(fd);
    2558:	8526                	mv	a0,s1
    255a:	00007097          	auipc	ra,0x7
    255e:	a56080e7          	jalr	-1450(ra) # 8fb0 <close>
}
    2562:	60e2                	ld	ra,24(sp)
    2564:	6442                	ld	s0,16(sp)
    2566:	64a2                	ld	s1,8(sp)
    2568:	6902                	ld	s2,0(sp)
    256a:	6105                	addi	sp,sp,32
    256c:	8082                	ret
    printf("%s: open failed\n", s);
    256e:	85ca                	mv	a1,s2
    2570:	00008517          	auipc	a0,0x8
    2574:	c8050513          	addi	a0,a0,-896 # a1f0 <malloc+0xc30>
    2578:	00007097          	auipc	ra,0x7
    257c:	f90080e7          	jalr	-112(ra) # 9508 <printf>
    exit(1);
    2580:	4505                	li	a0,1
    2582:	00007097          	auipc	ra,0x7
    2586:	a06080e7          	jalr	-1530(ra) # 8f88 <exit>

000000000000258a <sbrkbugs>:
{
    258a:	1141                	addi	sp,sp,-16
    258c:	e406                	sd	ra,8(sp)
    258e:	e022                	sd	s0,0(sp)
    2590:	0800                	addi	s0,sp,16
  int pid = fork();
    2592:	00007097          	auipc	ra,0x7
    2596:	9ee080e7          	jalr	-1554(ra) # 8f80 <fork>
  if(pid < 0){
    259a:	02054263          	bltz	a0,25be <sbrkbugs+0x34>
  if(pid == 0){
    259e:	ed0d                	bnez	a0,25d8 <sbrkbugs+0x4e>
    int sz = (uint64) sbrk(0);
    25a0:	00007097          	auipc	ra,0x7
    25a4:	a58080e7          	jalr	-1448(ra) # 8ff8 <sbrk>
    sbrk(-sz);
    25a8:	40a0053b          	negw	a0,a0
    25ac:	00007097          	auipc	ra,0x7
    25b0:	a4c080e7          	jalr	-1460(ra) # 8ff8 <sbrk>
    exit(0);
    25b4:	4501                	li	a0,0
    25b6:	00007097          	auipc	ra,0x7
    25ba:	9d2080e7          	jalr	-1582(ra) # 8f88 <exit>
    printf("fork failed\n");
    25be:	00008517          	auipc	a0,0x8
    25c2:	f9a50513          	addi	a0,a0,-102 # a558 <malloc+0xf98>
    25c6:	00007097          	auipc	ra,0x7
    25ca:	f42080e7          	jalr	-190(ra) # 9508 <printf>
    exit(1);
    25ce:	4505                	li	a0,1
    25d0:	00007097          	auipc	ra,0x7
    25d4:	9b8080e7          	jalr	-1608(ra) # 8f88 <exit>
  wait(0);
    25d8:	4501                	li	a0,0
    25da:	00007097          	auipc	ra,0x7
    25de:	9b6080e7          	jalr	-1610(ra) # 8f90 <wait>
  pid = fork();
    25e2:	00007097          	auipc	ra,0x7
    25e6:	99e080e7          	jalr	-1634(ra) # 8f80 <fork>
  if(pid < 0){
    25ea:	02054563          	bltz	a0,2614 <sbrkbugs+0x8a>
  if(pid == 0){
    25ee:	e121                	bnez	a0,262e <sbrkbugs+0xa4>
    int sz = (uint64) sbrk(0);
    25f0:	00007097          	auipc	ra,0x7
    25f4:	a08080e7          	jalr	-1528(ra) # 8ff8 <sbrk>
    sbrk(-(sz - 3500));
    25f8:	6785                	lui	a5,0x1
    25fa:	dac7879b          	addiw	a5,a5,-596 # dac <removeread+0xc8>
    25fe:	40a7853b          	subw	a0,a5,a0
    2602:	00007097          	auipc	ra,0x7
    2606:	9f6080e7          	jalr	-1546(ra) # 8ff8 <sbrk>
    exit(0);
    260a:	4501                	li	a0,0
    260c:	00007097          	auipc	ra,0x7
    2610:	97c080e7          	jalr	-1668(ra) # 8f88 <exit>
    printf("fork failed\n");
    2614:	00008517          	auipc	a0,0x8
    2618:	f4450513          	addi	a0,a0,-188 # a558 <malloc+0xf98>
    261c:	00007097          	auipc	ra,0x7
    2620:	eec080e7          	jalr	-276(ra) # 9508 <printf>
    exit(1);
    2624:	4505                	li	a0,1
    2626:	00007097          	auipc	ra,0x7
    262a:	962080e7          	jalr	-1694(ra) # 8f88 <exit>
  wait(0);
    262e:	4501                	li	a0,0
    2630:	00007097          	auipc	ra,0x7
    2634:	960080e7          	jalr	-1696(ra) # 8f90 <wait>
  pid = fork();
    2638:	00007097          	auipc	ra,0x7
    263c:	948080e7          	jalr	-1720(ra) # 8f80 <fork>
  if(pid < 0){
    2640:	02054a63          	bltz	a0,2674 <sbrkbugs+0xea>
  if(pid == 0){
    2644:	e529                	bnez	a0,268e <sbrkbugs+0x104>
    sbrk((10*4096 + 2048) - (uint64)sbrk(0));
    2646:	00007097          	auipc	ra,0x7
    264a:	9b2080e7          	jalr	-1614(ra) # 8ff8 <sbrk>
    264e:	67ad                	lui	a5,0xb
    2650:	8007879b          	addiw	a5,a5,-2048 # a800 <malloc+0x1240>
    2654:	40a7853b          	subw	a0,a5,a0
    2658:	00007097          	auipc	ra,0x7
    265c:	9a0080e7          	jalr	-1632(ra) # 8ff8 <sbrk>
    sbrk(-10);
    2660:	5559                	li	a0,-10
    2662:	00007097          	auipc	ra,0x7
    2666:	996080e7          	jalr	-1642(ra) # 8ff8 <sbrk>
    exit(0);
    266a:	4501                	li	a0,0
    266c:	00007097          	auipc	ra,0x7
    2670:	91c080e7          	jalr	-1764(ra) # 8f88 <exit>
    printf("fork failed\n");
    2674:	00008517          	auipc	a0,0x8
    2678:	ee450513          	addi	a0,a0,-284 # a558 <malloc+0xf98>
    267c:	00007097          	auipc	ra,0x7
    2680:	e8c080e7          	jalr	-372(ra) # 9508 <printf>
    exit(1);
    2684:	4505                	li	a0,1
    2686:	00007097          	auipc	ra,0x7
    268a:	902080e7          	jalr	-1790(ra) # 8f88 <exit>
  wait(0);
    268e:	4501                	li	a0,0
    2690:	00007097          	auipc	ra,0x7
    2694:	900080e7          	jalr	-1792(ra) # 8f90 <wait>
  exit(0);
    2698:	4501                	li	a0,0
    269a:	00007097          	auipc	ra,0x7
    269e:	8ee080e7          	jalr	-1810(ra) # 8f88 <exit>

00000000000026a2 <execout>:
{
    26a2:	715d                	addi	sp,sp,-80
    26a4:	e486                	sd	ra,72(sp)
    26a6:	e0a2                	sd	s0,64(sp)
    26a8:	fc26                	sd	s1,56(sp)
    26aa:	f84a                	sd	s2,48(sp)
    26ac:	f44e                	sd	s3,40(sp)
    26ae:	f052                	sd	s4,32(sp)
    26b0:	0880                	addi	s0,sp,80
  for(int avail = 0; avail < 15; avail++){
    26b2:	4901                	li	s2,0
    26b4:	49bd                	li	s3,15
    int pid = fork();
    26b6:	00007097          	auipc	ra,0x7
    26ba:	8ca080e7          	jalr	-1846(ra) # 8f80 <fork>
    26be:	84aa                	mv	s1,a0
    if(pid < 0){
    26c0:	02054063          	bltz	a0,26e0 <execout+0x3e>
    } else if(pid == 0){
    26c4:	c91d                	beqz	a0,26fa <execout+0x58>
      wait((int*)0);
    26c6:	4501                	li	a0,0
    26c8:	00007097          	auipc	ra,0x7
    26cc:	8c8080e7          	jalr	-1848(ra) # 8f90 <wait>
  for(int avail = 0; avail < 15; avail++){
    26d0:	2905                	addiw	s2,s2,1
    26d2:	ff3912e3          	bne	s2,s3,26b6 <execout+0x14>
  exit(0);
    26d6:	4501                	li	a0,0
    26d8:	00007097          	auipc	ra,0x7
    26dc:	8b0080e7          	jalr	-1872(ra) # 8f88 <exit>
      printf("fork failed\n");
    26e0:	00008517          	auipc	a0,0x8
    26e4:	e7850513          	addi	a0,a0,-392 # a558 <malloc+0xf98>
    26e8:	00007097          	auipc	ra,0x7
    26ec:	e20080e7          	jalr	-480(ra) # 9508 <printf>
      exit(1);
    26f0:	4505                	li	a0,1
    26f2:	00007097          	auipc	ra,0x7
    26f6:	896080e7          	jalr	-1898(ra) # 8f88 <exit>
        if(a == 0xffffffffffffffffLL)
    26fa:	59fd                	li	s3,-1
        *(char*)(a + 4096 - 1) = 1;
    26fc:	4a05                	li	s4,1
        uint64 a = (uint64) sbrk(4096);
    26fe:	6505                	lui	a0,0x1
    2700:	00007097          	auipc	ra,0x7
    2704:	8f8080e7          	jalr	-1800(ra) # 8ff8 <sbrk>
        if(a == 0xffffffffffffffffLL)
    2708:	01350763          	beq	a0,s3,2716 <execout+0x74>
        *(char*)(a + 4096 - 1) = 1;
    270c:	6785                	lui	a5,0x1
    270e:	97aa                	add	a5,a5,a0
    2710:	ff478fa3          	sb	s4,-1(a5) # fff <testdev+0x161>
      while(1){
    2714:	b7ed                	j	26fe <execout+0x5c>
      for(int i = 0; i < avail; i++)
    2716:	01205a63          	blez	s2,272a <execout+0x88>
        sbrk(-4096);
    271a:	757d                	lui	a0,0xfffff
    271c:	00007097          	auipc	ra,0x7
    2720:	8dc080e7          	jalr	-1828(ra) # 8ff8 <sbrk>
      for(int i = 0; i < avail; i++)
    2724:	2485                	addiw	s1,s1,1
    2726:	ff249ae3          	bne	s1,s2,271a <execout+0x78>
      close(1);
    272a:	4505                	li	a0,1
    272c:	00007097          	auipc	ra,0x7
    2730:	884080e7          	jalr	-1916(ra) # 8fb0 <close>
      char *args[] = { "echo", "x", 0 };
    2734:	00007517          	auipc	a0,0x7
    2738:	fd450513          	addi	a0,a0,-44 # 9708 <malloc+0x148>
    273c:	faa43c23          	sd	a0,-72(s0)
    2740:	00007797          	auipc	a5,0x7
    2744:	03878793          	addi	a5,a5,56 # 9778 <malloc+0x1b8>
    2748:	fcf43023          	sd	a5,-64(s0)
    274c:	fc043423          	sd	zero,-56(s0)
      exec("echo", args);
    2750:	fb840593          	addi	a1,s0,-72
    2754:	00007097          	auipc	ra,0x7
    2758:	86c080e7          	jalr	-1940(ra) # 8fc0 <exec>
      exit(0);
    275c:	4501                	li	a0,0
    275e:	00007097          	auipc	ra,0x7
    2762:	82a080e7          	jalr	-2006(ra) # 8f88 <exit>

0000000000002766 <iputtest>:
{
    2766:	1101                	addi	sp,sp,-32
    2768:	ec06                	sd	ra,24(sp)
    276a:	e822                	sd	s0,16(sp)
    276c:	e426                	sd	s1,8(sp)
    276e:	1000                	addi	s0,sp,32
    2770:	84aa                	mv	s1,a0
  if(mkdir("iputdir") < 0){
    2772:	00008517          	auipc	a0,0x8
    2776:	05e50513          	addi	a0,a0,94 # a7d0 <malloc+0x1210>
    277a:	00007097          	auipc	ra,0x7
    277e:	85e080e7          	jalr	-1954(ra) # 8fd8 <mkdir>
    2782:	04054563          	bltz	a0,27cc <iputtest+0x66>
  if(chdir("iputdir") < 0){
    2786:	00008517          	auipc	a0,0x8
    278a:	04a50513          	addi	a0,a0,74 # a7d0 <malloc+0x1210>
    278e:	00007097          	auipc	ra,0x7
    2792:	852080e7          	jalr	-1966(ra) # 8fe0 <chdir>
    2796:	04054963          	bltz	a0,27e8 <iputtest+0x82>
  if(remove("../iputdir") < 0){
    279a:	00008517          	auipc	a0,0x8
    279e:	07650513          	addi	a0,a0,118 # a810 <malloc+0x1250>
    27a2:	00007097          	auipc	ra,0x7
    27a6:	88e080e7          	jalr	-1906(ra) # 9030 <remove>
    27aa:	04054d63          	bltz	a0,2804 <iputtest+0x9e>
  if(chdir("/") < 0){
    27ae:	00008517          	auipc	a0,0x8
    27b2:	09250513          	addi	a0,a0,146 # a840 <malloc+0x1280>
    27b6:	00007097          	auipc	ra,0x7
    27ba:	82a080e7          	jalr	-2006(ra) # 8fe0 <chdir>
    27be:	06054163          	bltz	a0,2820 <iputtest+0xba>
}
    27c2:	60e2                	ld	ra,24(sp)
    27c4:	6442                	ld	s0,16(sp)
    27c6:	64a2                	ld	s1,8(sp)
    27c8:	6105                	addi	sp,sp,32
    27ca:	8082                	ret
    printf("%s: mkdir failed\n", s);
    27cc:	85a6                	mv	a1,s1
    27ce:	00008517          	auipc	a0,0x8
    27d2:	00a50513          	addi	a0,a0,10 # a7d8 <malloc+0x1218>
    27d6:	00007097          	auipc	ra,0x7
    27da:	d32080e7          	jalr	-718(ra) # 9508 <printf>
    exit(1);
    27de:	4505                	li	a0,1
    27e0:	00006097          	auipc	ra,0x6
    27e4:	7a8080e7          	jalr	1960(ra) # 8f88 <exit>
    printf("%s: chdir iputdir failed\n", s);
    27e8:	85a6                	mv	a1,s1
    27ea:	00008517          	auipc	a0,0x8
    27ee:	00650513          	addi	a0,a0,6 # a7f0 <malloc+0x1230>
    27f2:	00007097          	auipc	ra,0x7
    27f6:	d16080e7          	jalr	-746(ra) # 9508 <printf>
    exit(1);
    27fa:	4505                	li	a0,1
    27fc:	00006097          	auipc	ra,0x6
    2800:	78c080e7          	jalr	1932(ra) # 8f88 <exit>
    printf("%s: remove ../iputdir failed\n", s);
    2804:	85a6                	mv	a1,s1
    2806:	00008517          	auipc	a0,0x8
    280a:	01a50513          	addi	a0,a0,26 # a820 <malloc+0x1260>
    280e:	00007097          	auipc	ra,0x7
    2812:	cfa080e7          	jalr	-774(ra) # 9508 <printf>
    exit(1);
    2816:	4505                	li	a0,1
    2818:	00006097          	auipc	ra,0x6
    281c:	770080e7          	jalr	1904(ra) # 8f88 <exit>
    printf("%s: chdir / failed\n", s);
    2820:	85a6                	mv	a1,s1
    2822:	00008517          	auipc	a0,0x8
    2826:	02650513          	addi	a0,a0,38 # a848 <malloc+0x1288>
    282a:	00007097          	auipc	ra,0x7
    282e:	cde080e7          	jalr	-802(ra) # 9508 <printf>
    exit(1);
    2832:	4505                	li	a0,1
    2834:	00006097          	auipc	ra,0x6
    2838:	754080e7          	jalr	1876(ra) # 8f88 <exit>

000000000000283c <exitiputtest>:
{
    283c:	7179                	addi	sp,sp,-48
    283e:	f406                	sd	ra,40(sp)
    2840:	f022                	sd	s0,32(sp)
    2842:	ec26                	sd	s1,24(sp)
    2844:	1800                	addi	s0,sp,48
    2846:	84aa                	mv	s1,a0
  pid = fork();
    2848:	00006097          	auipc	ra,0x6
    284c:	738080e7          	jalr	1848(ra) # 8f80 <fork>
  if(pid < 0){
    2850:	04054663          	bltz	a0,289c <exitiputtest+0x60>
  if(pid == 0){
    2854:	ed45                	bnez	a0,290c <exitiputtest+0xd0>
    if(mkdir("iputdir") < 0){
    2856:	00008517          	auipc	a0,0x8
    285a:	f7a50513          	addi	a0,a0,-134 # a7d0 <malloc+0x1210>
    285e:	00006097          	auipc	ra,0x6
    2862:	77a080e7          	jalr	1914(ra) # 8fd8 <mkdir>
    2866:	04054963          	bltz	a0,28b8 <exitiputtest+0x7c>
    if(chdir("iputdir") < 0){
    286a:	00008517          	auipc	a0,0x8
    286e:	f6650513          	addi	a0,a0,-154 # a7d0 <malloc+0x1210>
    2872:	00006097          	auipc	ra,0x6
    2876:	76e080e7          	jalr	1902(ra) # 8fe0 <chdir>
    287a:	04054d63          	bltz	a0,28d4 <exitiputtest+0x98>
    if(remove("../iputdir") < 0){
    287e:	00008517          	auipc	a0,0x8
    2882:	f9250513          	addi	a0,a0,-110 # a810 <malloc+0x1250>
    2886:	00006097          	auipc	ra,0x6
    288a:	7aa080e7          	jalr	1962(ra) # 9030 <remove>
    288e:	06054163          	bltz	a0,28f0 <exitiputtest+0xb4>
    exit(0);
    2892:	4501                	li	a0,0
    2894:	00006097          	auipc	ra,0x6
    2898:	6f4080e7          	jalr	1780(ra) # 8f88 <exit>
    printf("%s: fork failed\n", s);
    289c:	85a6                	mv	a1,s1
    289e:	00008517          	auipc	a0,0x8
    28a2:	93a50513          	addi	a0,a0,-1734 # a1d8 <malloc+0xc18>
    28a6:	00007097          	auipc	ra,0x7
    28aa:	c62080e7          	jalr	-926(ra) # 9508 <printf>
    exit(1);
    28ae:	4505                	li	a0,1
    28b0:	00006097          	auipc	ra,0x6
    28b4:	6d8080e7          	jalr	1752(ra) # 8f88 <exit>
      printf("%s: mkdir failed\n", s);
    28b8:	85a6                	mv	a1,s1
    28ba:	00008517          	auipc	a0,0x8
    28be:	f1e50513          	addi	a0,a0,-226 # a7d8 <malloc+0x1218>
    28c2:	00007097          	auipc	ra,0x7
    28c6:	c46080e7          	jalr	-954(ra) # 9508 <printf>
      exit(1);
    28ca:	4505                	li	a0,1
    28cc:	00006097          	auipc	ra,0x6
    28d0:	6bc080e7          	jalr	1724(ra) # 8f88 <exit>
      printf("%s: child chdir failed\n", s);
    28d4:	85a6                	mv	a1,s1
    28d6:	00008517          	auipc	a0,0x8
    28da:	f8a50513          	addi	a0,a0,-118 # a860 <malloc+0x12a0>
    28de:	00007097          	auipc	ra,0x7
    28e2:	c2a080e7          	jalr	-982(ra) # 9508 <printf>
      exit(1);
    28e6:	4505                	li	a0,1
    28e8:	00006097          	auipc	ra,0x6
    28ec:	6a0080e7          	jalr	1696(ra) # 8f88 <exit>
      printf("%s: remove ../iputdir failed\n", s);
    28f0:	85a6                	mv	a1,s1
    28f2:	00008517          	auipc	a0,0x8
    28f6:	f2e50513          	addi	a0,a0,-210 # a820 <malloc+0x1260>
    28fa:	00007097          	auipc	ra,0x7
    28fe:	c0e080e7          	jalr	-1010(ra) # 9508 <printf>
      exit(1);
    2902:	4505                	li	a0,1
    2904:	00006097          	auipc	ra,0x6
    2908:	684080e7          	jalr	1668(ra) # 8f88 <exit>
  wait(&xstatus);
    290c:	fdc40513          	addi	a0,s0,-36
    2910:	00006097          	auipc	ra,0x6
    2914:	680080e7          	jalr	1664(ra) # 8f90 <wait>
  exit(xstatus);
    2918:	fdc42503          	lw	a0,-36(s0)
    291c:	00006097          	auipc	ra,0x6
    2920:	66c080e7          	jalr	1644(ra) # 8f88 <exit>

0000000000002924 <subdir>:
{
    2924:	1101                	addi	sp,sp,-32
    2926:	ec06                	sd	ra,24(sp)
    2928:	e822                	sd	s0,16(sp)
    292a:	e426                	sd	s1,8(sp)
    292c:	e04a                	sd	s2,0(sp)
    292e:	1000                	addi	s0,sp,32
    2930:	892a                	mv	s2,a0
  remove("ff");
    2932:	00008517          	auipc	a0,0x8
    2936:	f4650513          	addi	a0,a0,-186 # a878 <malloc+0x12b8>
    293a:	00006097          	auipc	ra,0x6
    293e:	6f6080e7          	jalr	1782(ra) # 9030 <remove>
  if(mkdir("dd") != 0){
    2942:	00008517          	auipc	a0,0x8
    2946:	f3e50513          	addi	a0,a0,-194 # a880 <malloc+0x12c0>
    294a:	00006097          	auipc	ra,0x6
    294e:	68e080e7          	jalr	1678(ra) # 8fd8 <mkdir>
    2952:	24051363          	bnez	a0,2b98 <subdir+0x274>
  fd = open("dd/ff", O_CREATE | O_RDWR);
    2956:	20200593          	li	a1,514
    295a:	00008517          	auipc	a0,0x8
    295e:	f4650513          	addi	a0,a0,-186 # a8a0 <malloc+0x12e0>
    2962:	00006097          	auipc	ra,0x6
    2966:	666080e7          	jalr	1638(ra) # 8fc8 <open>
    296a:	84aa                	mv	s1,a0
  if(fd < 0){
    296c:	24054463          	bltz	a0,2bb4 <subdir+0x290>
  write(fd, "ff", 2);
    2970:	4609                	li	a2,2
    2972:	00008597          	auipc	a1,0x8
    2976:	f0658593          	addi	a1,a1,-250 # a878 <malloc+0x12b8>
    297a:	00006097          	auipc	ra,0x6
    297e:	62e080e7          	jalr	1582(ra) # 8fa8 <write>
  close(fd);
    2982:	8526                	mv	a0,s1
    2984:	00006097          	auipc	ra,0x6
    2988:	62c080e7          	jalr	1580(ra) # 8fb0 <close>
  if(remove("dd") >= 0){
    298c:	00008517          	auipc	a0,0x8
    2990:	ef450513          	addi	a0,a0,-268 # a880 <malloc+0x12c0>
    2994:	00006097          	auipc	ra,0x6
    2998:	69c080e7          	jalr	1692(ra) # 9030 <remove>
    299c:	22055a63          	bgez	a0,2bd0 <subdir+0x2ac>
  if(mkdir("/dd/dd") != 0){
    29a0:	00008517          	auipc	a0,0x8
    29a4:	f5850513          	addi	a0,a0,-168 # a8f8 <malloc+0x1338>
    29a8:	00006097          	auipc	ra,0x6
    29ac:	630080e7          	jalr	1584(ra) # 8fd8 <mkdir>
    29b0:	22051e63          	bnez	a0,2bec <subdir+0x2c8>
  fd = open("dd/dd/ff", O_CREATE | O_RDWR);
    29b4:	20200593          	li	a1,514
    29b8:	00008517          	auipc	a0,0x8
    29bc:	f6850513          	addi	a0,a0,-152 # a920 <malloc+0x1360>
    29c0:	00006097          	auipc	ra,0x6
    29c4:	608080e7          	jalr	1544(ra) # 8fc8 <open>
    29c8:	84aa                	mv	s1,a0
  if(fd < 0){
    29ca:	22054f63          	bltz	a0,2c08 <subdir+0x2e4>
  write(fd, "FF", 2);
    29ce:	4609                	li	a2,2
    29d0:	00008597          	auipc	a1,0x8
    29d4:	f8058593          	addi	a1,a1,-128 # a950 <malloc+0x1390>
    29d8:	00006097          	auipc	ra,0x6
    29dc:	5d0080e7          	jalr	1488(ra) # 8fa8 <write>
  close(fd);
    29e0:	8526                	mv	a0,s1
    29e2:	00006097          	auipc	ra,0x6
    29e6:	5ce080e7          	jalr	1486(ra) # 8fb0 <close>
  fd = open("dd/dd/../ff", 0);
    29ea:	4581                	li	a1,0
    29ec:	00008517          	auipc	a0,0x8
    29f0:	f6c50513          	addi	a0,a0,-148 # a958 <malloc+0x1398>
    29f4:	00006097          	auipc	ra,0x6
    29f8:	5d4080e7          	jalr	1492(ra) # 8fc8 <open>
    29fc:	84aa                	mv	s1,a0
  if(fd < 0){
    29fe:	22054363          	bltz	a0,2c24 <subdir+0x300>
  cc = read(fd, buf, sizeof(buf));
    2a02:	6609                	lui	a2,0x2
    2a04:	80060613          	addi	a2,a2,-2048 # 1800 <exectest+0x172>
    2a08:	0001a597          	auipc	a1,0x1a
    2a0c:	6c058593          	addi	a1,a1,1728 # 1d0c8 <buf>
    2a10:	00006097          	auipc	ra,0x6
    2a14:	590080e7          	jalr	1424(ra) # 8fa0 <read>
  if(cc != 2 || buf[0] != 'f'){
    2a18:	4789                	li	a5,2
    2a1a:	22f51363          	bne	a0,a5,2c40 <subdir+0x31c>
    2a1e:	0001a717          	auipc	a4,0x1a
    2a22:	6aa74703          	lbu	a4,1706(a4) # 1d0c8 <buf>
    2a26:	06600793          	li	a5,102
    2a2a:	20f71b63          	bne	a4,a5,2c40 <subdir+0x31c>
  close(fd);
    2a2e:	8526                	mv	a0,s1
    2a30:	00006097          	auipc	ra,0x6
    2a34:	580080e7          	jalr	1408(ra) # 8fb0 <close>
  if(remove("dd/dd/ff") != 0){
    2a38:	00008517          	auipc	a0,0x8
    2a3c:	ee850513          	addi	a0,a0,-280 # a920 <malloc+0x1360>
    2a40:	00006097          	auipc	ra,0x6
    2a44:	5f0080e7          	jalr	1520(ra) # 9030 <remove>
    2a48:	20051a63          	bnez	a0,2c5c <subdir+0x338>
  if(open("dd/dd/ff", O_RDONLY) >= 0){
    2a4c:	4581                	li	a1,0
    2a4e:	00008517          	auipc	a0,0x8
    2a52:	ed250513          	addi	a0,a0,-302 # a920 <malloc+0x1360>
    2a56:	00006097          	auipc	ra,0x6
    2a5a:	572080e7          	jalr	1394(ra) # 8fc8 <open>
    2a5e:	20055d63          	bgez	a0,2c78 <subdir+0x354>
  if(chdir("dd") != 0){
    2a62:	00008517          	auipc	a0,0x8
    2a66:	e1e50513          	addi	a0,a0,-482 # a880 <malloc+0x12c0>
    2a6a:	00006097          	auipc	ra,0x6
    2a6e:	576080e7          	jalr	1398(ra) # 8fe0 <chdir>
    2a72:	22051163          	bnez	a0,2c94 <subdir+0x370>
  if(chdir("dd/../../dd") != 0){
    2a76:	00008517          	auipc	a0,0x8
    2a7a:	f9250513          	addi	a0,a0,-110 # aa08 <malloc+0x1448>
    2a7e:	00006097          	auipc	ra,0x6
    2a82:	562080e7          	jalr	1378(ra) # 8fe0 <chdir>
    2a86:	22051563          	bnez	a0,2cb0 <subdir+0x38c>
  if(chdir("dd/../../../dd") != 0){
    2a8a:	00008517          	auipc	a0,0x8
    2a8e:	fae50513          	addi	a0,a0,-82 # aa38 <malloc+0x1478>
    2a92:	00006097          	auipc	ra,0x6
    2a96:	54e080e7          	jalr	1358(ra) # 8fe0 <chdir>
    2a9a:	22051963          	bnez	a0,2ccc <subdir+0x3a8>
  if(chdir("./..") != 0){
    2a9e:	00008517          	auipc	a0,0x8
    2aa2:	fca50513          	addi	a0,a0,-54 # aa68 <malloc+0x14a8>
    2aa6:	00006097          	auipc	ra,0x6
    2aaa:	53a080e7          	jalr	1338(ra) # 8fe0 <chdir>
    2aae:	22051d63          	bnez	a0,2ce8 <subdir+0x3c4>
  if(open("dd/dd/ff", O_RDONLY) >= 0){
    2ab2:	4581                	li	a1,0
    2ab4:	00008517          	auipc	a0,0x8
    2ab8:	e6c50513          	addi	a0,a0,-404 # a920 <malloc+0x1360>
    2abc:	00006097          	auipc	ra,0x6
    2ac0:	50c080e7          	jalr	1292(ra) # 8fc8 <open>
    2ac4:	24055063          	bgez	a0,2d04 <subdir+0x3e0>
  if(open("dd/ff/ff", O_CREATE|O_RDWR) >= 0){
    2ac8:	20200593          	li	a1,514
    2acc:	00008517          	auipc	a0,0x8
    2ad0:	fec50513          	addi	a0,a0,-20 # aab8 <malloc+0x14f8>
    2ad4:	00006097          	auipc	ra,0x6
    2ad8:	4f4080e7          	jalr	1268(ra) # 8fc8 <open>
    2adc:	24055263          	bgez	a0,2d20 <subdir+0x3fc>
  if(open("dd/xx/ff", O_CREATE|O_RDWR) >= 0){
    2ae0:	20200593          	li	a1,514
    2ae4:	00008517          	auipc	a0,0x8
    2ae8:	00450513          	addi	a0,a0,4 # aae8 <malloc+0x1528>
    2aec:	00006097          	auipc	ra,0x6
    2af0:	4dc080e7          	jalr	1244(ra) # 8fc8 <open>
    2af4:	24055463          	bgez	a0,2d3c <subdir+0x418>
  if(open("dd", O_CREATE) >= 0){
    2af8:	20000593          	li	a1,512
    2afc:	00008517          	auipc	a0,0x8
    2b00:	d8450513          	addi	a0,a0,-636 # a880 <malloc+0x12c0>
    2b04:	00006097          	auipc	ra,0x6
    2b08:	4c4080e7          	jalr	1220(ra) # 8fc8 <open>
    2b0c:	24055663          	bgez	a0,2d58 <subdir+0x434>
  if(open("dd", O_RDWR) >= 0){
    2b10:	4589                	li	a1,2
    2b12:	00008517          	auipc	a0,0x8
    2b16:	d6e50513          	addi	a0,a0,-658 # a880 <malloc+0x12c0>
    2b1a:	00006097          	auipc	ra,0x6
    2b1e:	4ae080e7          	jalr	1198(ra) # 8fc8 <open>
    2b22:	24055963          	bgez	a0,2d74 <subdir+0x450>
  if(open("dd", O_WRONLY) >= 0){
    2b26:	4585                	li	a1,1
    2b28:	00008517          	auipc	a0,0x8
    2b2c:	d5850513          	addi	a0,a0,-680 # a880 <malloc+0x12c0>
    2b30:	00006097          	auipc	ra,0x6
    2b34:	498080e7          	jalr	1176(ra) # 8fc8 <open>
    2b38:	24055c63          	bgez	a0,2d90 <subdir+0x46c>
  if(remove("dd/ff") != 0){
    2b3c:	00008517          	auipc	a0,0x8
    2b40:	d6450513          	addi	a0,a0,-668 # a8a0 <malloc+0x12e0>
    2b44:	00006097          	auipc	ra,0x6
    2b48:	4ec080e7          	jalr	1260(ra) # 9030 <remove>
    2b4c:	26051063          	bnez	a0,2dac <subdir+0x488>
  if(remove("dd") == 0){
    2b50:	00008517          	auipc	a0,0x8
    2b54:	d3050513          	addi	a0,a0,-720 # a880 <malloc+0x12c0>
    2b58:	00006097          	auipc	ra,0x6
    2b5c:	4d8080e7          	jalr	1240(ra) # 9030 <remove>
    2b60:	26050463          	beqz	a0,2dc8 <subdir+0x4a4>
  if(remove("dd/dd") < 0){
    2b64:	00008517          	auipc	a0,0x8
    2b68:	05c50513          	addi	a0,a0,92 # abc0 <malloc+0x1600>
    2b6c:	00006097          	auipc	ra,0x6
    2b70:	4c4080e7          	jalr	1220(ra) # 9030 <remove>
    2b74:	26054863          	bltz	a0,2de4 <subdir+0x4c0>
  if(remove("dd") < 0){
    2b78:	00008517          	auipc	a0,0x8
    2b7c:	d0850513          	addi	a0,a0,-760 # a880 <malloc+0x12c0>
    2b80:	00006097          	auipc	ra,0x6
    2b84:	4b0080e7          	jalr	1200(ra) # 9030 <remove>
    2b88:	26054c63          	bltz	a0,2e00 <subdir+0x4dc>
}
    2b8c:	60e2                	ld	ra,24(sp)
    2b8e:	6442                	ld	s0,16(sp)
    2b90:	64a2                	ld	s1,8(sp)
    2b92:	6902                	ld	s2,0(sp)
    2b94:	6105                	addi	sp,sp,32
    2b96:	8082                	ret
    printf("%s: mkdir dd failed\n", s);
    2b98:	85ca                	mv	a1,s2
    2b9a:	00008517          	auipc	a0,0x8
    2b9e:	cee50513          	addi	a0,a0,-786 # a888 <malloc+0x12c8>
    2ba2:	00007097          	auipc	ra,0x7
    2ba6:	966080e7          	jalr	-1690(ra) # 9508 <printf>
    exit(1);
    2baa:	4505                	li	a0,1
    2bac:	00006097          	auipc	ra,0x6
    2bb0:	3dc080e7          	jalr	988(ra) # 8f88 <exit>
    printf("%s: create dd/ff failed\n", s);
    2bb4:	85ca                	mv	a1,s2
    2bb6:	00008517          	auipc	a0,0x8
    2bba:	cf250513          	addi	a0,a0,-782 # a8a8 <malloc+0x12e8>
    2bbe:	00007097          	auipc	ra,0x7
    2bc2:	94a080e7          	jalr	-1718(ra) # 9508 <printf>
    exit(1);
    2bc6:	4505                	li	a0,1
    2bc8:	00006097          	auipc	ra,0x6
    2bcc:	3c0080e7          	jalr	960(ra) # 8f88 <exit>
    printf("%s: remove dd (non-empty dir) succeeded!\n", s);
    2bd0:	85ca                	mv	a1,s2
    2bd2:	00008517          	auipc	a0,0x8
    2bd6:	cf650513          	addi	a0,a0,-778 # a8c8 <malloc+0x1308>
    2bda:	00007097          	auipc	ra,0x7
    2bde:	92e080e7          	jalr	-1746(ra) # 9508 <printf>
    exit(1);
    2be2:	4505                	li	a0,1
    2be4:	00006097          	auipc	ra,0x6
    2be8:	3a4080e7          	jalr	932(ra) # 8f88 <exit>
    printf("subdir mkdir dd/dd failed\n", s);
    2bec:	85ca                	mv	a1,s2
    2bee:	00008517          	auipc	a0,0x8
    2bf2:	d1250513          	addi	a0,a0,-750 # a900 <malloc+0x1340>
    2bf6:	00007097          	auipc	ra,0x7
    2bfa:	912080e7          	jalr	-1774(ra) # 9508 <printf>
    exit(1);
    2bfe:	4505                	li	a0,1
    2c00:	00006097          	auipc	ra,0x6
    2c04:	388080e7          	jalr	904(ra) # 8f88 <exit>
    printf("%s: create dd/dd/ff failed\n", s);
    2c08:	85ca                	mv	a1,s2
    2c0a:	00008517          	auipc	a0,0x8
    2c0e:	d2650513          	addi	a0,a0,-730 # a930 <malloc+0x1370>
    2c12:	00007097          	auipc	ra,0x7
    2c16:	8f6080e7          	jalr	-1802(ra) # 9508 <printf>
    exit(1);
    2c1a:	4505                	li	a0,1
    2c1c:	00006097          	auipc	ra,0x6
    2c20:	36c080e7          	jalr	876(ra) # 8f88 <exit>
    printf("%s: open dd/dd/../ff failed\n", s);
    2c24:	85ca                	mv	a1,s2
    2c26:	00008517          	auipc	a0,0x8
    2c2a:	d4250513          	addi	a0,a0,-702 # a968 <malloc+0x13a8>
    2c2e:	00007097          	auipc	ra,0x7
    2c32:	8da080e7          	jalr	-1830(ra) # 9508 <printf>
    exit(1);
    2c36:	4505                	li	a0,1
    2c38:	00006097          	auipc	ra,0x6
    2c3c:	350080e7          	jalr	848(ra) # 8f88 <exit>
    printf("%s: dd/dd/../ff wrong content\n", s);
    2c40:	85ca                	mv	a1,s2
    2c42:	00008517          	auipc	a0,0x8
    2c46:	d4650513          	addi	a0,a0,-698 # a988 <malloc+0x13c8>
    2c4a:	00007097          	auipc	ra,0x7
    2c4e:	8be080e7          	jalr	-1858(ra) # 9508 <printf>
    exit(1);
    2c52:	4505                	li	a0,1
    2c54:	00006097          	auipc	ra,0x6
    2c58:	334080e7          	jalr	820(ra) # 8f88 <exit>
    printf("%s: remove dd/dd/ff failed\n", s);
    2c5c:	85ca                	mv	a1,s2
    2c5e:	00008517          	auipc	a0,0x8
    2c62:	d4a50513          	addi	a0,a0,-694 # a9a8 <malloc+0x13e8>
    2c66:	00007097          	auipc	ra,0x7
    2c6a:	8a2080e7          	jalr	-1886(ra) # 9508 <printf>
    exit(1);
    2c6e:	4505                	li	a0,1
    2c70:	00006097          	auipc	ra,0x6
    2c74:	318080e7          	jalr	792(ra) # 8f88 <exit>
    printf("%s: open (removeed) dd/dd/ff succeeded\n", s);
    2c78:	85ca                	mv	a1,s2
    2c7a:	00008517          	auipc	a0,0x8
    2c7e:	d4e50513          	addi	a0,a0,-690 # a9c8 <malloc+0x1408>
    2c82:	00007097          	auipc	ra,0x7
    2c86:	886080e7          	jalr	-1914(ra) # 9508 <printf>
    exit(1);
    2c8a:	4505                	li	a0,1
    2c8c:	00006097          	auipc	ra,0x6
    2c90:	2fc080e7          	jalr	764(ra) # 8f88 <exit>
    printf("%s: chdir dd failed\n", s);
    2c94:	85ca                	mv	a1,s2
    2c96:	00008517          	auipc	a0,0x8
    2c9a:	d5a50513          	addi	a0,a0,-678 # a9f0 <malloc+0x1430>
    2c9e:	00007097          	auipc	ra,0x7
    2ca2:	86a080e7          	jalr	-1942(ra) # 9508 <printf>
    exit(1);
    2ca6:	4505                	li	a0,1
    2ca8:	00006097          	auipc	ra,0x6
    2cac:	2e0080e7          	jalr	736(ra) # 8f88 <exit>
    printf("%s: chdir dd/../../dd failed\n", s);
    2cb0:	85ca                	mv	a1,s2
    2cb2:	00008517          	auipc	a0,0x8
    2cb6:	d6650513          	addi	a0,a0,-666 # aa18 <malloc+0x1458>
    2cba:	00007097          	auipc	ra,0x7
    2cbe:	84e080e7          	jalr	-1970(ra) # 9508 <printf>
    exit(1);
    2cc2:	4505                	li	a0,1
    2cc4:	00006097          	auipc	ra,0x6
    2cc8:	2c4080e7          	jalr	708(ra) # 8f88 <exit>
    printf("chdir dd/../../dd failed\n", s);
    2ccc:	85ca                	mv	a1,s2
    2cce:	00008517          	auipc	a0,0x8
    2cd2:	d7a50513          	addi	a0,a0,-646 # aa48 <malloc+0x1488>
    2cd6:	00007097          	auipc	ra,0x7
    2cda:	832080e7          	jalr	-1998(ra) # 9508 <printf>
    exit(1);
    2cde:	4505                	li	a0,1
    2ce0:	00006097          	auipc	ra,0x6
    2ce4:	2a8080e7          	jalr	680(ra) # 8f88 <exit>
    printf("%s: chdir ./.. failed\n", s);
    2ce8:	85ca                	mv	a1,s2
    2cea:	00008517          	auipc	a0,0x8
    2cee:	d8650513          	addi	a0,a0,-634 # aa70 <malloc+0x14b0>
    2cf2:	00007097          	auipc	ra,0x7
    2cf6:	816080e7          	jalr	-2026(ra) # 9508 <printf>
    exit(1);
    2cfa:	4505                	li	a0,1
    2cfc:	00006097          	auipc	ra,0x6
    2d00:	28c080e7          	jalr	652(ra) # 8f88 <exit>
    printf("%s: open (removeed) dd/dd/ff succeeded!\n", s);
    2d04:	85ca                	mv	a1,s2
    2d06:	00008517          	auipc	a0,0x8
    2d0a:	d8250513          	addi	a0,a0,-638 # aa88 <malloc+0x14c8>
    2d0e:	00006097          	auipc	ra,0x6
    2d12:	7fa080e7          	jalr	2042(ra) # 9508 <printf>
    exit(1);
    2d16:	4505                	li	a0,1
    2d18:	00006097          	auipc	ra,0x6
    2d1c:	270080e7          	jalr	624(ra) # 8f88 <exit>
    printf("%s: create dd/ff/ff succeeded!\n", s);
    2d20:	85ca                	mv	a1,s2
    2d22:	00008517          	auipc	a0,0x8
    2d26:	da650513          	addi	a0,a0,-602 # aac8 <malloc+0x1508>
    2d2a:	00006097          	auipc	ra,0x6
    2d2e:	7de080e7          	jalr	2014(ra) # 9508 <printf>
    exit(1);
    2d32:	4505                	li	a0,1
    2d34:	00006097          	auipc	ra,0x6
    2d38:	254080e7          	jalr	596(ra) # 8f88 <exit>
    printf("%s: create dd/xx/ff succeeded!\n", s);
    2d3c:	85ca                	mv	a1,s2
    2d3e:	00008517          	auipc	a0,0x8
    2d42:	dba50513          	addi	a0,a0,-582 # aaf8 <malloc+0x1538>
    2d46:	00006097          	auipc	ra,0x6
    2d4a:	7c2080e7          	jalr	1986(ra) # 9508 <printf>
    exit(1);
    2d4e:	4505                	li	a0,1
    2d50:	00006097          	auipc	ra,0x6
    2d54:	238080e7          	jalr	568(ra) # 8f88 <exit>
    printf("%s: create dd succeeded!\n", s);
    2d58:	85ca                	mv	a1,s2
    2d5a:	00008517          	auipc	a0,0x8
    2d5e:	dbe50513          	addi	a0,a0,-578 # ab18 <malloc+0x1558>
    2d62:	00006097          	auipc	ra,0x6
    2d66:	7a6080e7          	jalr	1958(ra) # 9508 <printf>
    exit(1);
    2d6a:	4505                	li	a0,1
    2d6c:	00006097          	auipc	ra,0x6
    2d70:	21c080e7          	jalr	540(ra) # 8f88 <exit>
    printf("%s: open dd rdwr succeeded!\n", s);
    2d74:	85ca                	mv	a1,s2
    2d76:	00008517          	auipc	a0,0x8
    2d7a:	dc250513          	addi	a0,a0,-574 # ab38 <malloc+0x1578>
    2d7e:	00006097          	auipc	ra,0x6
    2d82:	78a080e7          	jalr	1930(ra) # 9508 <printf>
    exit(1);
    2d86:	4505                	li	a0,1
    2d88:	00006097          	auipc	ra,0x6
    2d8c:	200080e7          	jalr	512(ra) # 8f88 <exit>
    printf("%s: open dd wronly succeeded!\n", s);
    2d90:	85ca                	mv	a1,s2
    2d92:	00008517          	auipc	a0,0x8
    2d96:	dc650513          	addi	a0,a0,-570 # ab58 <malloc+0x1598>
    2d9a:	00006097          	auipc	ra,0x6
    2d9e:	76e080e7          	jalr	1902(ra) # 9508 <printf>
    exit(1);
    2da2:	4505                	li	a0,1
    2da4:	00006097          	auipc	ra,0x6
    2da8:	1e4080e7          	jalr	484(ra) # 8f88 <exit>
    printf("%s: remove dd/ff failed\n", s);
    2dac:	85ca                	mv	a1,s2
    2dae:	00008517          	auipc	a0,0x8
    2db2:	dca50513          	addi	a0,a0,-566 # ab78 <malloc+0x15b8>
    2db6:	00006097          	auipc	ra,0x6
    2dba:	752080e7          	jalr	1874(ra) # 9508 <printf>
    exit(1);
    2dbe:	4505                	li	a0,1
    2dc0:	00006097          	auipc	ra,0x6
    2dc4:	1c8080e7          	jalr	456(ra) # 8f88 <exit>
    printf("%s: remove non-empty dd succeeded!\n", s);
    2dc8:	85ca                	mv	a1,s2
    2dca:	00008517          	auipc	a0,0x8
    2dce:	dce50513          	addi	a0,a0,-562 # ab98 <malloc+0x15d8>
    2dd2:	00006097          	auipc	ra,0x6
    2dd6:	736080e7          	jalr	1846(ra) # 9508 <printf>
    exit(1);
    2dda:	4505                	li	a0,1
    2ddc:	00006097          	auipc	ra,0x6
    2de0:	1ac080e7          	jalr	428(ra) # 8f88 <exit>
    printf("%s: remove dd/dd failed\n", s);
    2de4:	85ca                	mv	a1,s2
    2de6:	00008517          	auipc	a0,0x8
    2dea:	de250513          	addi	a0,a0,-542 # abc8 <malloc+0x1608>
    2dee:	00006097          	auipc	ra,0x6
    2df2:	71a080e7          	jalr	1818(ra) # 9508 <printf>
    exit(1);
    2df6:	4505                	li	a0,1
    2df8:	00006097          	auipc	ra,0x6
    2dfc:	190080e7          	jalr	400(ra) # 8f88 <exit>
    printf("%s: remove dd failed\n", s);
    2e00:	85ca                	mv	a1,s2
    2e02:	00008517          	auipc	a0,0x8
    2e06:	de650513          	addi	a0,a0,-538 # abe8 <malloc+0x1628>
    2e0a:	00006097          	auipc	ra,0x6
    2e0e:	6fe080e7          	jalr	1790(ra) # 9508 <printf>
    exit(1);
    2e12:	4505                	li	a0,1
    2e14:	00006097          	auipc	ra,0x6
    2e18:	174080e7          	jalr	372(ra) # 8f88 <exit>

0000000000002e1c <rmdot>:
{
    2e1c:	1101                	addi	sp,sp,-32
    2e1e:	ec06                	sd	ra,24(sp)
    2e20:	e822                	sd	s0,16(sp)
    2e22:	e426                	sd	s1,8(sp)
    2e24:	1000                	addi	s0,sp,32
    2e26:	84aa                	mv	s1,a0
  if(mkdir("dots") != 0){
    2e28:	00008517          	auipc	a0,0x8
    2e2c:	dd850513          	addi	a0,a0,-552 # ac00 <malloc+0x1640>
    2e30:	00006097          	auipc	ra,0x6
    2e34:	1a8080e7          	jalr	424(ra) # 8fd8 <mkdir>
    2e38:	e549                	bnez	a0,2ec2 <rmdot+0xa6>
  if(chdir("dots") != 0){
    2e3a:	00008517          	auipc	a0,0x8
    2e3e:	dc650513          	addi	a0,a0,-570 # ac00 <malloc+0x1640>
    2e42:	00006097          	auipc	ra,0x6
    2e46:	19e080e7          	jalr	414(ra) # 8fe0 <chdir>
    2e4a:	e951                	bnez	a0,2ede <rmdot+0xc2>
  if(remove(".") == 0){
    2e4c:	00008517          	auipc	a0,0x8
    2e50:	dec50513          	addi	a0,a0,-532 # ac38 <malloc+0x1678>
    2e54:	00006097          	auipc	ra,0x6
    2e58:	1dc080e7          	jalr	476(ra) # 9030 <remove>
    2e5c:	cd59                	beqz	a0,2efa <rmdot+0xde>
  if(remove("..") == 0){
    2e5e:	00008517          	auipc	a0,0x8
    2e62:	dfa50513          	addi	a0,a0,-518 # ac58 <malloc+0x1698>
    2e66:	00006097          	auipc	ra,0x6
    2e6a:	1ca080e7          	jalr	458(ra) # 9030 <remove>
    2e6e:	c545                	beqz	a0,2f16 <rmdot+0xfa>
  if(chdir("/") != 0){
    2e70:	00008517          	auipc	a0,0x8
    2e74:	9d050513          	addi	a0,a0,-1584 # a840 <malloc+0x1280>
    2e78:	00006097          	auipc	ra,0x6
    2e7c:	168080e7          	jalr	360(ra) # 8fe0 <chdir>
    2e80:	e94d                	bnez	a0,2f32 <rmdot+0x116>
  if(remove("dots/.") == 0){
    2e82:	00008517          	auipc	a0,0x8
    2e86:	df650513          	addi	a0,a0,-522 # ac78 <malloc+0x16b8>
    2e8a:	00006097          	auipc	ra,0x6
    2e8e:	1a6080e7          	jalr	422(ra) # 9030 <remove>
    2e92:	cd55                	beqz	a0,2f4e <rmdot+0x132>
  if(remove("dots/..") == 0){
    2e94:	00008517          	auipc	a0,0x8
    2e98:	e0c50513          	addi	a0,a0,-500 # aca0 <malloc+0x16e0>
    2e9c:	00006097          	auipc	ra,0x6
    2ea0:	194080e7          	jalr	404(ra) # 9030 <remove>
    2ea4:	c179                	beqz	a0,2f6a <rmdot+0x14e>
  if(remove("dots") != 0){
    2ea6:	00008517          	auipc	a0,0x8
    2eaa:	d5a50513          	addi	a0,a0,-678 # ac00 <malloc+0x1640>
    2eae:	00006097          	auipc	ra,0x6
    2eb2:	182080e7          	jalr	386(ra) # 9030 <remove>
    2eb6:	e961                	bnez	a0,2f86 <rmdot+0x16a>
}
    2eb8:	60e2                	ld	ra,24(sp)
    2eba:	6442                	ld	s0,16(sp)
    2ebc:	64a2                	ld	s1,8(sp)
    2ebe:	6105                	addi	sp,sp,32
    2ec0:	8082                	ret
    printf("%s: mkdir dots failed\n", s);
    2ec2:	85a6                	mv	a1,s1
    2ec4:	00008517          	auipc	a0,0x8
    2ec8:	d4450513          	addi	a0,a0,-700 # ac08 <malloc+0x1648>
    2ecc:	00006097          	auipc	ra,0x6
    2ed0:	63c080e7          	jalr	1596(ra) # 9508 <printf>
    exit(1);
    2ed4:	4505                	li	a0,1
    2ed6:	00006097          	auipc	ra,0x6
    2eda:	0b2080e7          	jalr	178(ra) # 8f88 <exit>
    printf("%s: chdir dots failed\n", s);
    2ede:	85a6                	mv	a1,s1
    2ee0:	00008517          	auipc	a0,0x8
    2ee4:	d4050513          	addi	a0,a0,-704 # ac20 <malloc+0x1660>
    2ee8:	00006097          	auipc	ra,0x6
    2eec:	620080e7          	jalr	1568(ra) # 9508 <printf>
    exit(1);
    2ef0:	4505                	li	a0,1
    2ef2:	00006097          	auipc	ra,0x6
    2ef6:	096080e7          	jalr	150(ra) # 8f88 <exit>
    printf("%s: rm . worked!\n", s);
    2efa:	85a6                	mv	a1,s1
    2efc:	00008517          	auipc	a0,0x8
    2f00:	d4450513          	addi	a0,a0,-700 # ac40 <malloc+0x1680>
    2f04:	00006097          	auipc	ra,0x6
    2f08:	604080e7          	jalr	1540(ra) # 9508 <printf>
    exit(1);
    2f0c:	4505                	li	a0,1
    2f0e:	00006097          	auipc	ra,0x6
    2f12:	07a080e7          	jalr	122(ra) # 8f88 <exit>
    printf("%s: rm .. worked!\n", s);
    2f16:	85a6                	mv	a1,s1
    2f18:	00008517          	auipc	a0,0x8
    2f1c:	d4850513          	addi	a0,a0,-696 # ac60 <malloc+0x16a0>
    2f20:	00006097          	auipc	ra,0x6
    2f24:	5e8080e7          	jalr	1512(ra) # 9508 <printf>
    exit(1);
    2f28:	4505                	li	a0,1
    2f2a:	00006097          	auipc	ra,0x6
    2f2e:	05e080e7          	jalr	94(ra) # 8f88 <exit>
    printf("%s: chdir / failed\n", s);
    2f32:	85a6                	mv	a1,s1
    2f34:	00008517          	auipc	a0,0x8
    2f38:	91450513          	addi	a0,a0,-1772 # a848 <malloc+0x1288>
    2f3c:	00006097          	auipc	ra,0x6
    2f40:	5cc080e7          	jalr	1484(ra) # 9508 <printf>
    exit(1);
    2f44:	4505                	li	a0,1
    2f46:	00006097          	auipc	ra,0x6
    2f4a:	042080e7          	jalr	66(ra) # 8f88 <exit>
    printf("%s: remove dots/. worked!\n", s);
    2f4e:	85a6                	mv	a1,s1
    2f50:	00008517          	auipc	a0,0x8
    2f54:	d3050513          	addi	a0,a0,-720 # ac80 <malloc+0x16c0>
    2f58:	00006097          	auipc	ra,0x6
    2f5c:	5b0080e7          	jalr	1456(ra) # 9508 <printf>
    exit(1);
    2f60:	4505                	li	a0,1
    2f62:	00006097          	auipc	ra,0x6
    2f66:	026080e7          	jalr	38(ra) # 8f88 <exit>
    printf("%s: remove dots/.. worked!\n", s);
    2f6a:	85a6                	mv	a1,s1
    2f6c:	00008517          	auipc	a0,0x8
    2f70:	d3c50513          	addi	a0,a0,-708 # aca8 <malloc+0x16e8>
    2f74:	00006097          	auipc	ra,0x6
    2f78:	594080e7          	jalr	1428(ra) # 9508 <printf>
    exit(1);
    2f7c:	4505                	li	a0,1
    2f7e:	00006097          	auipc	ra,0x6
    2f82:	00a080e7          	jalr	10(ra) # 8f88 <exit>
    printf("%s: remove dots failed!\n", s);
    2f86:	85a6                	mv	a1,s1
    2f88:	00008517          	auipc	a0,0x8
    2f8c:	d4050513          	addi	a0,a0,-704 # acc8 <malloc+0x1708>
    2f90:	00006097          	auipc	ra,0x6
    2f94:	578080e7          	jalr	1400(ra) # 9508 <printf>
    exit(1);
    2f98:	4505                	li	a0,1
    2f9a:	00006097          	auipc	ra,0x6
    2f9e:	fee080e7          	jalr	-18(ra) # 8f88 <exit>

0000000000002fa2 <dirfile>:
{
    2fa2:	1101                	addi	sp,sp,-32
    2fa4:	ec06                	sd	ra,24(sp)
    2fa6:	e822                	sd	s0,16(sp)
    2fa8:	e426                	sd	s1,8(sp)
    2faa:	e04a                	sd	s2,0(sp)
    2fac:	1000                	addi	s0,sp,32
    2fae:	892a                	mv	s2,a0
  fd = open("dirfile", O_CREATE);
    2fb0:	20000593          	li	a1,512
    2fb4:	00008517          	auipc	a0,0x8
    2fb8:	d3450513          	addi	a0,a0,-716 # ace8 <malloc+0x1728>
    2fbc:	00006097          	auipc	ra,0x6
    2fc0:	00c080e7          	jalr	12(ra) # 8fc8 <open>
  if(fd < 0){
    2fc4:	0c054d63          	bltz	a0,309e <dirfile+0xfc>
  close(fd);
    2fc8:	00006097          	auipc	ra,0x6
    2fcc:	fe8080e7          	jalr	-24(ra) # 8fb0 <close>
  if(chdir("dirfile") == 0){
    2fd0:	00008517          	auipc	a0,0x8
    2fd4:	d1850513          	addi	a0,a0,-744 # ace8 <malloc+0x1728>
    2fd8:	00006097          	auipc	ra,0x6
    2fdc:	008080e7          	jalr	8(ra) # 8fe0 <chdir>
    2fe0:	cd69                	beqz	a0,30ba <dirfile+0x118>
  fd = open("dirfile/xx", 0);
    2fe2:	4581                	li	a1,0
    2fe4:	00008517          	auipc	a0,0x8
    2fe8:	d4c50513          	addi	a0,a0,-692 # ad30 <malloc+0x1770>
    2fec:	00006097          	auipc	ra,0x6
    2ff0:	fdc080e7          	jalr	-36(ra) # 8fc8 <open>
  if(fd >= 0){
    2ff4:	0e055163          	bgez	a0,30d6 <dirfile+0x134>
  fd = open("dirfile/xx", O_CREATE);
    2ff8:	20000593          	li	a1,512
    2ffc:	00008517          	auipc	a0,0x8
    3000:	d3450513          	addi	a0,a0,-716 # ad30 <malloc+0x1770>
    3004:	00006097          	auipc	ra,0x6
    3008:	fc4080e7          	jalr	-60(ra) # 8fc8 <open>
  if(fd >= 0){
    300c:	0e055363          	bgez	a0,30f2 <dirfile+0x150>
  if(mkdir("dirfile/xx") == 0){
    3010:	00008517          	auipc	a0,0x8
    3014:	d2050513          	addi	a0,a0,-736 # ad30 <malloc+0x1770>
    3018:	00006097          	auipc	ra,0x6
    301c:	fc0080e7          	jalr	-64(ra) # 8fd8 <mkdir>
    3020:	c57d                	beqz	a0,310e <dirfile+0x16c>
  if(remove("dirfile/xx") == 0){
    3022:	00008517          	auipc	a0,0x8
    3026:	d0e50513          	addi	a0,a0,-754 # ad30 <malloc+0x1770>
    302a:	00006097          	auipc	ra,0x6
    302e:	006080e7          	jalr	6(ra) # 9030 <remove>
    3032:	cd65                	beqz	a0,312a <dirfile+0x188>
  if(remove("dirfile") != 0){
    3034:	00008517          	auipc	a0,0x8
    3038:	cb450513          	addi	a0,a0,-844 # ace8 <malloc+0x1728>
    303c:	00006097          	auipc	ra,0x6
    3040:	ff4080e7          	jalr	-12(ra) # 9030 <remove>
    3044:	10051163          	bnez	a0,3146 <dirfile+0x1a4>
  fd = open(".", O_RDWR);
    3048:	4589                	li	a1,2
    304a:	00008517          	auipc	a0,0x8
    304e:	bee50513          	addi	a0,a0,-1042 # ac38 <malloc+0x1678>
    3052:	00006097          	auipc	ra,0x6
    3056:	f76080e7          	jalr	-138(ra) # 8fc8 <open>
  if(fd >= 0){
    305a:	10055463          	bgez	a0,3162 <dirfile+0x1c0>
  fd = open(".", 0);
    305e:	4581                	li	a1,0
    3060:	00008517          	auipc	a0,0x8
    3064:	bd850513          	addi	a0,a0,-1064 # ac38 <malloc+0x1678>
    3068:	00006097          	auipc	ra,0x6
    306c:	f60080e7          	jalr	-160(ra) # 8fc8 <open>
    3070:	84aa                	mv	s1,a0
  if(write(fd, "x", 1) > 0){
    3072:	4605                	li	a2,1
    3074:	00006597          	auipc	a1,0x6
    3078:	70458593          	addi	a1,a1,1796 # 9778 <malloc+0x1b8>
    307c:	00006097          	auipc	ra,0x6
    3080:	f2c080e7          	jalr	-212(ra) # 8fa8 <write>
    3084:	0ea04d63          	bgtz	a0,317e <dirfile+0x1dc>
  close(fd);
    3088:	8526                	mv	a0,s1
    308a:	00006097          	auipc	ra,0x6
    308e:	f26080e7          	jalr	-218(ra) # 8fb0 <close>
}
    3092:	60e2                	ld	ra,24(sp)
    3094:	6442                	ld	s0,16(sp)
    3096:	64a2                	ld	s1,8(sp)
    3098:	6902                	ld	s2,0(sp)
    309a:	6105                	addi	sp,sp,32
    309c:	8082                	ret
    printf("%s: create dirfile failed\n", s);
    309e:	85ca                	mv	a1,s2
    30a0:	00008517          	auipc	a0,0x8
    30a4:	c5050513          	addi	a0,a0,-944 # acf0 <malloc+0x1730>
    30a8:	00006097          	auipc	ra,0x6
    30ac:	460080e7          	jalr	1120(ra) # 9508 <printf>
    exit(1);
    30b0:	4505                	li	a0,1
    30b2:	00006097          	auipc	ra,0x6
    30b6:	ed6080e7          	jalr	-298(ra) # 8f88 <exit>
    printf("%s: chdir dirfile succeeded!\n", s);
    30ba:	85ca                	mv	a1,s2
    30bc:	00008517          	auipc	a0,0x8
    30c0:	c5450513          	addi	a0,a0,-940 # ad10 <malloc+0x1750>
    30c4:	00006097          	auipc	ra,0x6
    30c8:	444080e7          	jalr	1092(ra) # 9508 <printf>
    exit(1);
    30cc:	4505                	li	a0,1
    30ce:	00006097          	auipc	ra,0x6
    30d2:	eba080e7          	jalr	-326(ra) # 8f88 <exit>
    printf("%s: create dirfile/xx succeeded!\n", s);
    30d6:	85ca                	mv	a1,s2
    30d8:	00008517          	auipc	a0,0x8
    30dc:	c6850513          	addi	a0,a0,-920 # ad40 <malloc+0x1780>
    30e0:	00006097          	auipc	ra,0x6
    30e4:	428080e7          	jalr	1064(ra) # 9508 <printf>
    exit(1);
    30e8:	4505                	li	a0,1
    30ea:	00006097          	auipc	ra,0x6
    30ee:	e9e080e7          	jalr	-354(ra) # 8f88 <exit>
    printf("%s: create dirfile/xx succeeded!\n", s);
    30f2:	85ca                	mv	a1,s2
    30f4:	00008517          	auipc	a0,0x8
    30f8:	c4c50513          	addi	a0,a0,-948 # ad40 <malloc+0x1780>
    30fc:	00006097          	auipc	ra,0x6
    3100:	40c080e7          	jalr	1036(ra) # 9508 <printf>
    exit(1);
    3104:	4505                	li	a0,1
    3106:	00006097          	auipc	ra,0x6
    310a:	e82080e7          	jalr	-382(ra) # 8f88 <exit>
    printf("%s: mkdir dirfile/xx succeeded!\n", s);
    310e:	85ca                	mv	a1,s2
    3110:	00008517          	auipc	a0,0x8
    3114:	c5850513          	addi	a0,a0,-936 # ad68 <malloc+0x17a8>
    3118:	00006097          	auipc	ra,0x6
    311c:	3f0080e7          	jalr	1008(ra) # 9508 <printf>
    exit(1);
    3120:	4505                	li	a0,1
    3122:	00006097          	auipc	ra,0x6
    3126:	e66080e7          	jalr	-410(ra) # 8f88 <exit>
    printf("%s: remove dirfile/xx succeeded!\n", s);
    312a:	85ca                	mv	a1,s2
    312c:	00008517          	auipc	a0,0x8
    3130:	c6450513          	addi	a0,a0,-924 # ad90 <malloc+0x17d0>
    3134:	00006097          	auipc	ra,0x6
    3138:	3d4080e7          	jalr	980(ra) # 9508 <printf>
    exit(1);
    313c:	4505                	li	a0,1
    313e:	00006097          	auipc	ra,0x6
    3142:	e4a080e7          	jalr	-438(ra) # 8f88 <exit>
    printf("%s: remove dirfile failed!\n", s);
    3146:	85ca                	mv	a1,s2
    3148:	00008517          	auipc	a0,0x8
    314c:	c7050513          	addi	a0,a0,-912 # adb8 <malloc+0x17f8>
    3150:	00006097          	auipc	ra,0x6
    3154:	3b8080e7          	jalr	952(ra) # 9508 <printf>
    exit(1);
    3158:	4505                	li	a0,1
    315a:	00006097          	auipc	ra,0x6
    315e:	e2e080e7          	jalr	-466(ra) # 8f88 <exit>
    printf("%s: open . for writing succeeded!\n", s);
    3162:	85ca                	mv	a1,s2
    3164:	00008517          	auipc	a0,0x8
    3168:	c7450513          	addi	a0,a0,-908 # add8 <malloc+0x1818>
    316c:	00006097          	auipc	ra,0x6
    3170:	39c080e7          	jalr	924(ra) # 9508 <printf>
    exit(1);
    3174:	4505                	li	a0,1
    3176:	00006097          	auipc	ra,0x6
    317a:	e12080e7          	jalr	-494(ra) # 8f88 <exit>
    printf("%s: write . succeeded!\n", s);
    317e:	85ca                	mv	a1,s2
    3180:	00008517          	auipc	a0,0x8
    3184:	c8050513          	addi	a0,a0,-896 # ae00 <malloc+0x1840>
    3188:	00006097          	auipc	ra,0x6
    318c:	380080e7          	jalr	896(ra) # 9508 <printf>
    exit(1);
    3190:	4505                	li	a0,1
    3192:	00006097          	auipc	ra,0x6
    3196:	df6080e7          	jalr	-522(ra) # 8f88 <exit>

000000000000319a <iref>:
{
    319a:	7139                	addi	sp,sp,-64
    319c:	fc06                	sd	ra,56(sp)
    319e:	f822                	sd	s0,48(sp)
    31a0:	f426                	sd	s1,40(sp)
    31a2:	f04a                	sd	s2,32(sp)
    31a4:	ec4e                	sd	s3,24(sp)
    31a6:	e852                	sd	s4,16(sp)
    31a8:	e456                	sd	s5,8(sp)
    31aa:	0080                	addi	s0,sp,64
    31ac:	8aaa                	mv	s5,a0
    31ae:	02e00493          	li	s1,46
    if(mkdir("irefd") != 0){
    31b2:	00008917          	auipc	s2,0x8
    31b6:	c6690913          	addi	s2,s2,-922 # ae18 <malloc+0x1858>
    mkdir("");
    31ba:	00008a17          	auipc	s4,0x8
    31be:	8f6a0a13          	addi	s4,s4,-1802 # aab0 <malloc+0x14f0>
    fd = open("xx", O_CREATE);
    31c2:	00008997          	auipc	s3,0x8
    31c6:	b7698993          	addi	s3,s3,-1162 # ad38 <malloc+0x1778>
    31ca:	a889                	j	321c <iref+0x82>
      printf("%s: mkdir irefd failed\n", s);
    31cc:	85d6                	mv	a1,s5
    31ce:	00008517          	auipc	a0,0x8
    31d2:	c5250513          	addi	a0,a0,-942 # ae20 <malloc+0x1860>
    31d6:	00006097          	auipc	ra,0x6
    31da:	332080e7          	jalr	818(ra) # 9508 <printf>
      exit(1);
    31de:	4505                	li	a0,1
    31e0:	00006097          	auipc	ra,0x6
    31e4:	da8080e7          	jalr	-600(ra) # 8f88 <exit>
      printf("%s: chdir irefd failed\n", s);
    31e8:	85d6                	mv	a1,s5
    31ea:	00008517          	auipc	a0,0x8
    31ee:	c4e50513          	addi	a0,a0,-946 # ae38 <malloc+0x1878>
    31f2:	00006097          	auipc	ra,0x6
    31f6:	316080e7          	jalr	790(ra) # 9508 <printf>
      exit(1);
    31fa:	4505                	li	a0,1
    31fc:	00006097          	auipc	ra,0x6
    3200:	d8c080e7          	jalr	-628(ra) # 8f88 <exit>
      close(fd);
    3204:	00006097          	auipc	ra,0x6
    3208:	dac080e7          	jalr	-596(ra) # 8fb0 <close>
    320c:	a091                	j	3250 <iref+0xb6>
    remove("xx");
    320e:	854e                	mv	a0,s3
    3210:	00006097          	auipc	ra,0x6
    3214:	e20080e7          	jalr	-480(ra) # 9030 <remove>
  for(i = 0; i < NINODE - 4; i++){
    3218:	34fd                	addiw	s1,s1,-1
    321a:	c8a9                	beqz	s1,326c <iref+0xd2>
    if(mkdir("irefd") != 0){
    321c:	854a                	mv	a0,s2
    321e:	00006097          	auipc	ra,0x6
    3222:	dba080e7          	jalr	-582(ra) # 8fd8 <mkdir>
    3226:	f15d                	bnez	a0,31cc <iref+0x32>
    if(chdir("irefd") != 0){
    3228:	854a                	mv	a0,s2
    322a:	00006097          	auipc	ra,0x6
    322e:	db6080e7          	jalr	-586(ra) # 8fe0 <chdir>
    3232:	f95d                	bnez	a0,31e8 <iref+0x4e>
    mkdir("");
    3234:	8552                	mv	a0,s4
    3236:	00006097          	auipc	ra,0x6
    323a:	da2080e7          	jalr	-606(ra) # 8fd8 <mkdir>
    fd = open("", O_CREATE);
    323e:	20000593          	li	a1,512
    3242:	8552                	mv	a0,s4
    3244:	00006097          	auipc	ra,0x6
    3248:	d84080e7          	jalr	-636(ra) # 8fc8 <open>
    if(fd >= 0)
    324c:	fa055ce3          	bgez	a0,3204 <iref+0x6a>
    fd = open("xx", O_CREATE);
    3250:	20000593          	li	a1,512
    3254:	854e                	mv	a0,s3
    3256:	00006097          	auipc	ra,0x6
    325a:	d72080e7          	jalr	-654(ra) # 8fc8 <open>
    if(fd >= 0)
    325e:	fa0548e3          	bltz	a0,320e <iref+0x74>
      close(fd);
    3262:	00006097          	auipc	ra,0x6
    3266:	d4e080e7          	jalr	-690(ra) # 8fb0 <close>
    326a:	b755                	j	320e <iref+0x74>
    326c:	03300493          	li	s1,51
    chdir("..");
    3270:	00008997          	auipc	s3,0x8
    3274:	9e898993          	addi	s3,s3,-1560 # ac58 <malloc+0x1698>
    remove("irefd");
    3278:	00008917          	auipc	s2,0x8
    327c:	ba090913          	addi	s2,s2,-1120 # ae18 <malloc+0x1858>
    chdir("..");
    3280:	854e                	mv	a0,s3
    3282:	00006097          	auipc	ra,0x6
    3286:	d5e080e7          	jalr	-674(ra) # 8fe0 <chdir>
    remove("irefd");
    328a:	854a                	mv	a0,s2
    328c:	00006097          	auipc	ra,0x6
    3290:	da4080e7          	jalr	-604(ra) # 9030 <remove>
  for(i = 0; i < NINODE + 1; i++){
    3294:	34fd                	addiw	s1,s1,-1
    3296:	f4ed                	bnez	s1,3280 <iref+0xe6>
  chdir("/");
    3298:	00007517          	auipc	a0,0x7
    329c:	5a850513          	addi	a0,a0,1448 # a840 <malloc+0x1280>
    32a0:	00006097          	auipc	ra,0x6
    32a4:	d40080e7          	jalr	-704(ra) # 8fe0 <chdir>
}
    32a8:	70e2                	ld	ra,56(sp)
    32aa:	7442                	ld	s0,48(sp)
    32ac:	74a2                	ld	s1,40(sp)
    32ae:	7902                	ld	s2,32(sp)
    32b0:	69e2                	ld	s3,24(sp)
    32b2:	6a42                	ld	s4,16(sp)
    32b4:	6aa2                	ld	s5,8(sp)
    32b6:	6121                	addi	sp,sp,64
    32b8:	8082                	ret

00000000000032ba <openiputtest>:
{
    32ba:	7179                	addi	sp,sp,-48
    32bc:	f406                	sd	ra,40(sp)
    32be:	f022                	sd	s0,32(sp)
    32c0:	ec26                	sd	s1,24(sp)
    32c2:	1800                	addi	s0,sp,48
    32c4:	84aa                	mv	s1,a0
  if(mkdir("oidir") < 0){
    32c6:	00008517          	auipc	a0,0x8
    32ca:	b8a50513          	addi	a0,a0,-1142 # ae50 <malloc+0x1890>
    32ce:	00006097          	auipc	ra,0x6
    32d2:	d0a080e7          	jalr	-758(ra) # 8fd8 <mkdir>
    32d6:	04054263          	bltz	a0,331a <openiputtest+0x60>
  pid = fork();
    32da:	00006097          	auipc	ra,0x6
    32de:	ca6080e7          	jalr	-858(ra) # 8f80 <fork>
  if(pid < 0){
    32e2:	04054a63          	bltz	a0,3336 <openiputtest+0x7c>
  if(pid == 0){
    32e6:	e93d                	bnez	a0,335c <openiputtest+0xa2>
    int fd = open("oidir", O_RDWR);
    32e8:	4589                	li	a1,2
    32ea:	00008517          	auipc	a0,0x8
    32ee:	b6650513          	addi	a0,a0,-1178 # ae50 <malloc+0x1890>
    32f2:	00006097          	auipc	ra,0x6
    32f6:	cd6080e7          	jalr	-810(ra) # 8fc8 <open>
    if(fd >= 0){
    32fa:	04054c63          	bltz	a0,3352 <openiputtest+0x98>
      printf("%s: open directory for write succeeded\n", s);
    32fe:	85a6                	mv	a1,s1
    3300:	00008517          	auipc	a0,0x8
    3304:	b7050513          	addi	a0,a0,-1168 # ae70 <malloc+0x18b0>
    3308:	00006097          	auipc	ra,0x6
    330c:	200080e7          	jalr	512(ra) # 9508 <printf>
      exit(1);
    3310:	4505                	li	a0,1
    3312:	00006097          	auipc	ra,0x6
    3316:	c76080e7          	jalr	-906(ra) # 8f88 <exit>
    printf("%s: mkdir oidir failed\n", s);
    331a:	85a6                	mv	a1,s1
    331c:	00008517          	auipc	a0,0x8
    3320:	b3c50513          	addi	a0,a0,-1220 # ae58 <malloc+0x1898>
    3324:	00006097          	auipc	ra,0x6
    3328:	1e4080e7          	jalr	484(ra) # 9508 <printf>
    exit(1);
    332c:	4505                	li	a0,1
    332e:	00006097          	auipc	ra,0x6
    3332:	c5a080e7          	jalr	-934(ra) # 8f88 <exit>
    printf("%s: fork failed\n", s);
    3336:	85a6                	mv	a1,s1
    3338:	00007517          	auipc	a0,0x7
    333c:	ea050513          	addi	a0,a0,-352 # a1d8 <malloc+0xc18>
    3340:	00006097          	auipc	ra,0x6
    3344:	1c8080e7          	jalr	456(ra) # 9508 <printf>
    exit(1);
    3348:	4505                	li	a0,1
    334a:	00006097          	auipc	ra,0x6
    334e:	c3e080e7          	jalr	-962(ra) # 8f88 <exit>
    exit(0);
    3352:	4501                	li	a0,0
    3354:	00006097          	auipc	ra,0x6
    3358:	c34080e7          	jalr	-972(ra) # 8f88 <exit>
  sleep(1);
    335c:	4505                	li	a0,1
    335e:	00006097          	auipc	ra,0x6
    3362:	ca2080e7          	jalr	-862(ra) # 9000 <sleep>
  if(remove("oidir") != 0){
    3366:	00008517          	auipc	a0,0x8
    336a:	aea50513          	addi	a0,a0,-1302 # ae50 <malloc+0x1890>
    336e:	00006097          	auipc	ra,0x6
    3372:	cc2080e7          	jalr	-830(ra) # 9030 <remove>
    3376:	cd19                	beqz	a0,3394 <openiputtest+0xda>
    printf("%s: remove failed\n", s);
    3378:	85a6                	mv	a1,s1
    337a:	00008517          	auipc	a0,0x8
    337e:	b1e50513          	addi	a0,a0,-1250 # ae98 <malloc+0x18d8>
    3382:	00006097          	auipc	ra,0x6
    3386:	186080e7          	jalr	390(ra) # 9508 <printf>
    exit(1);
    338a:	4505                	li	a0,1
    338c:	00006097          	auipc	ra,0x6
    3390:	bfc080e7          	jalr	-1028(ra) # 8f88 <exit>
  wait(&xstatus);
    3394:	fdc40513          	addi	a0,s0,-36
    3398:	00006097          	auipc	ra,0x6
    339c:	bf8080e7          	jalr	-1032(ra) # 8f90 <wait>
  exit(xstatus);
    33a0:	fdc42503          	lw	a0,-36(s0)
    33a4:	00006097          	auipc	ra,0x6
    33a8:	be4080e7          	jalr	-1052(ra) # 8f88 <exit>

00000000000033ac <forkforkfork>:
{
    33ac:	1101                	addi	sp,sp,-32
    33ae:	ec06                	sd	ra,24(sp)
    33b0:	e822                	sd	s0,16(sp)
    33b2:	e426                	sd	s1,8(sp)
    33b4:	1000                	addi	s0,sp,32
    33b6:	84aa                	mv	s1,a0
  remove("stopforking");
    33b8:	00008517          	auipc	a0,0x8
    33bc:	af850513          	addi	a0,a0,-1288 # aeb0 <malloc+0x18f0>
    33c0:	00006097          	auipc	ra,0x6
    33c4:	c70080e7          	jalr	-912(ra) # 9030 <remove>
  int pid = fork();
    33c8:	00006097          	auipc	ra,0x6
    33cc:	bb8080e7          	jalr	-1096(ra) # 8f80 <fork>
  if(pid < 0){
    33d0:	04054d63          	bltz	a0,342a <forkforkfork+0x7e>
  if(pid == 0){
    33d4:	c92d                	beqz	a0,3446 <forkforkfork+0x9a>
  sleep(20); // two seconds
    33d6:	4551                	li	a0,20
    33d8:	00006097          	auipc	ra,0x6
    33dc:	c28080e7          	jalr	-984(ra) # 9000 <sleep>
  close(open("stopforking", O_CREATE|O_RDWR));
    33e0:	20200593          	li	a1,514
    33e4:	00008517          	auipc	a0,0x8
    33e8:	acc50513          	addi	a0,a0,-1332 # aeb0 <malloc+0x18f0>
    33ec:	00006097          	auipc	ra,0x6
    33f0:	bdc080e7          	jalr	-1060(ra) # 8fc8 <open>
    33f4:	00006097          	auipc	ra,0x6
    33f8:	bbc080e7          	jalr	-1092(ra) # 8fb0 <close>
  wait(0);
    33fc:	4501                	li	a0,0
    33fe:	00006097          	auipc	ra,0x6
    3402:	b92080e7          	jalr	-1134(ra) # 8f90 <wait>
  sleep(10); // one second
    3406:	4529                	li	a0,10
    3408:	00006097          	auipc	ra,0x6
    340c:	bf8080e7          	jalr	-1032(ra) # 9000 <sleep>
  remove("stopforking");
    3410:	00008517          	auipc	a0,0x8
    3414:	aa050513          	addi	a0,a0,-1376 # aeb0 <malloc+0x18f0>
    3418:	00006097          	auipc	ra,0x6
    341c:	c18080e7          	jalr	-1000(ra) # 9030 <remove>
}
    3420:	60e2                	ld	ra,24(sp)
    3422:	6442                	ld	s0,16(sp)
    3424:	64a2                	ld	s1,8(sp)
    3426:	6105                	addi	sp,sp,32
    3428:	8082                	ret
    printf("%s: fork failed", s);
    342a:	85a6                	mv	a1,s1
    342c:	00007517          	auipc	a0,0x7
    3430:	f6c50513          	addi	a0,a0,-148 # a398 <malloc+0xdd8>
    3434:	00006097          	auipc	ra,0x6
    3438:	0d4080e7          	jalr	212(ra) # 9508 <printf>
    exit(1);
    343c:	4505                	li	a0,1
    343e:	00006097          	auipc	ra,0x6
    3442:	b4a080e7          	jalr	-1206(ra) # 8f88 <exit>
      int fd = open("stopforking", 0);
    3446:	00008497          	auipc	s1,0x8
    344a:	a6a48493          	addi	s1,s1,-1430 # aeb0 <malloc+0x18f0>
    344e:	4581                	li	a1,0
    3450:	8526                	mv	a0,s1
    3452:	00006097          	auipc	ra,0x6
    3456:	b76080e7          	jalr	-1162(ra) # 8fc8 <open>
      if(fd >= 0){
    345a:	02055463          	bgez	a0,3482 <forkforkfork+0xd6>
      if(fork() < 0){
    345e:	00006097          	auipc	ra,0x6
    3462:	b22080e7          	jalr	-1246(ra) # 8f80 <fork>
    3466:	fe0554e3          	bgez	a0,344e <forkforkfork+0xa2>
        close(open("stopforking", O_CREATE|O_RDWR));
    346a:	20200593          	li	a1,514
    346e:	8526                	mv	a0,s1
    3470:	00006097          	auipc	ra,0x6
    3474:	b58080e7          	jalr	-1192(ra) # 8fc8 <open>
    3478:	00006097          	auipc	ra,0x6
    347c:	b38080e7          	jalr	-1224(ra) # 8fb0 <close>
    3480:	b7f9                	j	344e <forkforkfork+0xa2>
        exit(0);
    3482:	4501                	li	a0,0
    3484:	00006097          	auipc	ra,0x6
    3488:	b04080e7          	jalr	-1276(ra) # 8f88 <exit>

000000000000348c <preempt>:
{
    348c:	7139                	addi	sp,sp,-64
    348e:	fc06                	sd	ra,56(sp)
    3490:	f822                	sd	s0,48(sp)
    3492:	f426                	sd	s1,40(sp)
    3494:	f04a                	sd	s2,32(sp)
    3496:	ec4e                	sd	s3,24(sp)
    3498:	e852                	sd	s4,16(sp)
    349a:	0080                	addi	s0,sp,64
    349c:	892a                	mv	s2,a0
  pid1 = fork();
    349e:	00006097          	auipc	ra,0x6
    34a2:	ae2080e7          	jalr	-1310(ra) # 8f80 <fork>
  if(pid1 < 0) {
    34a6:	00054563          	bltz	a0,34b0 <preempt+0x24>
    34aa:	84aa                	mv	s1,a0
  if(pid1 == 0)
    34ac:	ed19                	bnez	a0,34ca <preempt+0x3e>
    for(;;)
    34ae:	a001                	j	34ae <preempt+0x22>
    printf("%s: fork failed");
    34b0:	00007517          	auipc	a0,0x7
    34b4:	ee850513          	addi	a0,a0,-280 # a398 <malloc+0xdd8>
    34b8:	00006097          	auipc	ra,0x6
    34bc:	050080e7          	jalr	80(ra) # 9508 <printf>
    exit(1);
    34c0:	4505                	li	a0,1
    34c2:	00006097          	auipc	ra,0x6
    34c6:	ac6080e7          	jalr	-1338(ra) # 8f88 <exit>
  pid2 = fork();
    34ca:	00006097          	auipc	ra,0x6
    34ce:	ab6080e7          	jalr	-1354(ra) # 8f80 <fork>
    34d2:	89aa                	mv	s3,a0
  if(pid2 < 0) {
    34d4:	00054463          	bltz	a0,34dc <preempt+0x50>
  if(pid2 == 0)
    34d8:	e105                	bnez	a0,34f8 <preempt+0x6c>
    for(;;)
    34da:	a001                	j	34da <preempt+0x4e>
    printf("%s: fork failed\n", s);
    34dc:	85ca                	mv	a1,s2
    34de:	00007517          	auipc	a0,0x7
    34e2:	cfa50513          	addi	a0,a0,-774 # a1d8 <malloc+0xc18>
    34e6:	00006097          	auipc	ra,0x6
    34ea:	022080e7          	jalr	34(ra) # 9508 <printf>
    exit(1);
    34ee:	4505                	li	a0,1
    34f0:	00006097          	auipc	ra,0x6
    34f4:	a98080e7          	jalr	-1384(ra) # 8f88 <exit>
  pipe(pfds);
    34f8:	fc840513          	addi	a0,s0,-56
    34fc:	00006097          	auipc	ra,0x6
    3500:	a9c080e7          	jalr	-1380(ra) # 8f98 <pipe>
  pid3 = fork();
    3504:	00006097          	auipc	ra,0x6
    3508:	a7c080e7          	jalr	-1412(ra) # 8f80 <fork>
    350c:	8a2a                	mv	s4,a0
  if(pid3 < 0) {
    350e:	02054e63          	bltz	a0,354a <preempt+0xbe>
  if(pid3 == 0){
    3512:	e13d                	bnez	a0,3578 <preempt+0xec>
    close(pfds[0]);
    3514:	fc842503          	lw	a0,-56(s0)
    3518:	00006097          	auipc	ra,0x6
    351c:	a98080e7          	jalr	-1384(ra) # 8fb0 <close>
    if(write(pfds[1], "x", 1) != 1)
    3520:	4605                	li	a2,1
    3522:	00006597          	auipc	a1,0x6
    3526:	25658593          	addi	a1,a1,598 # 9778 <malloc+0x1b8>
    352a:	fcc42503          	lw	a0,-52(s0)
    352e:	00006097          	auipc	ra,0x6
    3532:	a7a080e7          	jalr	-1414(ra) # 8fa8 <write>
    3536:	4785                	li	a5,1
    3538:	02f51763          	bne	a0,a5,3566 <preempt+0xda>
    close(pfds[1]);
    353c:	fcc42503          	lw	a0,-52(s0)
    3540:	00006097          	auipc	ra,0x6
    3544:	a70080e7          	jalr	-1424(ra) # 8fb0 <close>
    for(;;)
    3548:	a001                	j	3548 <preempt+0xbc>
     printf("%s: fork failed\n", s);
    354a:	85ca                	mv	a1,s2
    354c:	00007517          	auipc	a0,0x7
    3550:	c8c50513          	addi	a0,a0,-884 # a1d8 <malloc+0xc18>
    3554:	00006097          	auipc	ra,0x6
    3558:	fb4080e7          	jalr	-76(ra) # 9508 <printf>
     exit(1);
    355c:	4505                	li	a0,1
    355e:	00006097          	auipc	ra,0x6
    3562:	a2a080e7          	jalr	-1494(ra) # 8f88 <exit>
      printf("%s: preempt write error");
    3566:	00008517          	auipc	a0,0x8
    356a:	95a50513          	addi	a0,a0,-1702 # aec0 <malloc+0x1900>
    356e:	00006097          	auipc	ra,0x6
    3572:	f9a080e7          	jalr	-102(ra) # 9508 <printf>
    3576:	b7d9                	j	353c <preempt+0xb0>
  close(pfds[1]);
    3578:	fcc42503          	lw	a0,-52(s0)
    357c:	00006097          	auipc	ra,0x6
    3580:	a34080e7          	jalr	-1484(ra) # 8fb0 <close>
  if(read(pfds[0], buf, sizeof(buf)) != 1){
    3584:	6609                	lui	a2,0x2
    3586:	80060613          	addi	a2,a2,-2048 # 1800 <exectest+0x172>
    358a:	0001a597          	auipc	a1,0x1a
    358e:	b3e58593          	addi	a1,a1,-1218 # 1d0c8 <buf>
    3592:	fc842503          	lw	a0,-56(s0)
    3596:	00006097          	auipc	ra,0x6
    359a:	a0a080e7          	jalr	-1526(ra) # 8fa0 <read>
    359e:	4785                	li	a5,1
    35a0:	02f50263          	beq	a0,a5,35c4 <preempt+0x138>
    printf("%s: preempt read error");
    35a4:	00008517          	auipc	a0,0x8
    35a8:	93450513          	addi	a0,a0,-1740 # aed8 <malloc+0x1918>
    35ac:	00006097          	auipc	ra,0x6
    35b0:	f5c080e7          	jalr	-164(ra) # 9508 <printf>
}
    35b4:	70e2                	ld	ra,56(sp)
    35b6:	7442                	ld	s0,48(sp)
    35b8:	74a2                	ld	s1,40(sp)
    35ba:	7902                	ld	s2,32(sp)
    35bc:	69e2                	ld	s3,24(sp)
    35be:	6a42                	ld	s4,16(sp)
    35c0:	6121                	addi	sp,sp,64
    35c2:	8082                	ret
  close(pfds[0]);
    35c4:	fc842503          	lw	a0,-56(s0)
    35c8:	00006097          	auipc	ra,0x6
    35cc:	9e8080e7          	jalr	-1560(ra) # 8fb0 <close>
  printf("kill... ");
    35d0:	00008517          	auipc	a0,0x8
    35d4:	92050513          	addi	a0,a0,-1760 # aef0 <malloc+0x1930>
    35d8:	00006097          	auipc	ra,0x6
    35dc:	f30080e7          	jalr	-208(ra) # 9508 <printf>
  kill(pid1);
    35e0:	8526                	mv	a0,s1
    35e2:	00006097          	auipc	ra,0x6
    35e6:	9d6080e7          	jalr	-1578(ra) # 8fb8 <kill>
  kill(pid2);
    35ea:	854e                	mv	a0,s3
    35ec:	00006097          	auipc	ra,0x6
    35f0:	9cc080e7          	jalr	-1588(ra) # 8fb8 <kill>
  kill(pid3);
    35f4:	8552                	mv	a0,s4
    35f6:	00006097          	auipc	ra,0x6
    35fa:	9c2080e7          	jalr	-1598(ra) # 8fb8 <kill>
  printf("wait... ");
    35fe:	00008517          	auipc	a0,0x8
    3602:	90250513          	addi	a0,a0,-1790 # af00 <malloc+0x1940>
    3606:	00006097          	auipc	ra,0x6
    360a:	f02080e7          	jalr	-254(ra) # 9508 <printf>
  wait(0);
    360e:	4501                	li	a0,0
    3610:	00006097          	auipc	ra,0x6
    3614:	980080e7          	jalr	-1664(ra) # 8f90 <wait>
  wait(0);
    3618:	4501                	li	a0,0
    361a:	00006097          	auipc	ra,0x6
    361e:	976080e7          	jalr	-1674(ra) # 8f90 <wait>
  wait(0);
    3622:	4501                	li	a0,0
    3624:	00006097          	auipc	ra,0x6
    3628:	96c080e7          	jalr	-1684(ra) # 8f90 <wait>
    362c:	b761                	j	35b4 <preempt+0x128>

000000000000362e <sbrkfail>:
{
    362e:	7119                	addi	sp,sp,-128
    3630:	fc86                	sd	ra,120(sp)
    3632:	f8a2                	sd	s0,112(sp)
    3634:	f4a6                	sd	s1,104(sp)
    3636:	f0ca                	sd	s2,96(sp)
    3638:	ecce                	sd	s3,88(sp)
    363a:	e8d2                	sd	s4,80(sp)
    363c:	e4d6                	sd	s5,72(sp)
    363e:	e0da                	sd	s6,64(sp)
    3640:	0100                	addi	s0,sp,128
    3642:	8b2a                	mv	s6,a0
  if(pipe(fds) != 0){
    3644:	fb040513          	addi	a0,s0,-80
    3648:	00006097          	auipc	ra,0x6
    364c:	950080e7          	jalr	-1712(ra) # 8f98 <pipe>
    3650:	e911                	bnez	a0,3664 <sbrkfail+0x36>
    3652:	f8040493          	addi	s1,s0,-128
    3656:	fa840993          	addi	s3,s0,-88
    365a:	8926                	mv	s2,s1
    if(pids[i] != -1)
    365c:	5a7d                	li	s4,-1
      read(fds[0], &scratch, 1);
    365e:	faf40a93          	addi	s5,s0,-81
    3662:	a085                	j	36c2 <sbrkfail+0x94>
    printf("%s: pipe() failed\n", s);
    3664:	85da                	mv	a1,s6
    3666:	00007517          	auipc	a0,0x7
    366a:	c7a50513          	addi	a0,a0,-902 # a2e0 <malloc+0xd20>
    366e:	00006097          	auipc	ra,0x6
    3672:	e9a080e7          	jalr	-358(ra) # 9508 <printf>
    exit(1);
    3676:	4505                	li	a0,1
    3678:	00006097          	auipc	ra,0x6
    367c:	910080e7          	jalr	-1776(ra) # 8f88 <exit>
      sbrk(BIG - (uint64)sbrk(0));
    3680:	00006097          	auipc	ra,0x6
    3684:	978080e7          	jalr	-1672(ra) # 8ff8 <sbrk>
    3688:	064007b7          	lui	a5,0x6400
    368c:	40a7853b          	subw	a0,a5,a0
    3690:	00006097          	auipc	ra,0x6
    3694:	968080e7          	jalr	-1688(ra) # 8ff8 <sbrk>
      write(fds[1], "x", 1);
    3698:	4605                	li	a2,1
    369a:	00006597          	auipc	a1,0x6
    369e:	0de58593          	addi	a1,a1,222 # 9778 <malloc+0x1b8>
    36a2:	fb442503          	lw	a0,-76(s0)
    36a6:	00006097          	auipc	ra,0x6
    36aa:	902080e7          	jalr	-1790(ra) # 8fa8 <write>
      for(;;) sleep(1000);
    36ae:	3e800513          	li	a0,1000
    36b2:	00006097          	auipc	ra,0x6
    36b6:	94e080e7          	jalr	-1714(ra) # 9000 <sleep>
    36ba:	bfd5                	j	36ae <sbrkfail+0x80>
  for(i = 0; i < sizeof(pids)/sizeof(pids[0]); i++){
    36bc:	0911                	addi	s2,s2,4
    36be:	03390463          	beq	s2,s3,36e6 <sbrkfail+0xb8>
    if((pids[i] = fork()) == 0){
    36c2:	00006097          	auipc	ra,0x6
    36c6:	8be080e7          	jalr	-1858(ra) # 8f80 <fork>
    36ca:	00a92023          	sw	a0,0(s2)
    36ce:	d94d                	beqz	a0,3680 <sbrkfail+0x52>
    if(pids[i] != -1)
    36d0:	ff4506e3          	beq	a0,s4,36bc <sbrkfail+0x8e>
      read(fds[0], &scratch, 1);
    36d4:	4605                	li	a2,1
    36d6:	85d6                	mv	a1,s5
    36d8:	fb042503          	lw	a0,-80(s0)
    36dc:	00006097          	auipc	ra,0x6
    36e0:	8c4080e7          	jalr	-1852(ra) # 8fa0 <read>
    36e4:	bfe1                	j	36bc <sbrkfail+0x8e>
  c = sbrk(PGSIZE);
    36e6:	6505                	lui	a0,0x1
    36e8:	00006097          	auipc	ra,0x6
    36ec:	910080e7          	jalr	-1776(ra) # 8ff8 <sbrk>
    36f0:	8a2a                	mv	s4,a0
    if(pids[i] == -1)
    36f2:	597d                	li	s2,-1
    36f4:	a021                	j	36fc <sbrkfail+0xce>
  for(i = 0; i < sizeof(pids)/sizeof(pids[0]); i++){
    36f6:	0491                	addi	s1,s1,4
    36f8:	01348f63          	beq	s1,s3,3716 <sbrkfail+0xe8>
    if(pids[i] == -1)
    36fc:	4088                	lw	a0,0(s1)
    36fe:	ff250ce3          	beq	a0,s2,36f6 <sbrkfail+0xc8>
    kill(pids[i]);
    3702:	00006097          	auipc	ra,0x6
    3706:	8b6080e7          	jalr	-1866(ra) # 8fb8 <kill>
    wait(0);
    370a:	4501                	li	a0,0
    370c:	00006097          	auipc	ra,0x6
    3710:	884080e7          	jalr	-1916(ra) # 8f90 <wait>
    3714:	b7cd                	j	36f6 <sbrkfail+0xc8>
  if(c == (char*)0xffffffffffffffffL){
    3716:	57fd                	li	a5,-1
    3718:	04fa0263          	beq	s4,a5,375c <sbrkfail+0x12e>
  pid = fork();
    371c:	00006097          	auipc	ra,0x6
    3720:	864080e7          	jalr	-1948(ra) # 8f80 <fork>
    3724:	84aa                	mv	s1,a0
  if(pid < 0){
    3726:	04054963          	bltz	a0,3778 <sbrkfail+0x14a>
  if(pid == 0){
    372a:	c52d                	beqz	a0,3794 <sbrkfail+0x166>
  wait(&xstatus);
    372c:	fbc40513          	addi	a0,s0,-68
    3730:	00006097          	auipc	ra,0x6
    3734:	860080e7          	jalr	-1952(ra) # 8f90 <wait>
  if(xstatus != -1 && xstatus != 2)
    3738:	fbc42783          	lw	a5,-68(s0)
    373c:	577d                	li	a4,-1
    373e:	00e78563          	beq	a5,a4,3748 <sbrkfail+0x11a>
    3742:	4709                	li	a4,2
    3744:	08e79d63          	bne	a5,a4,37de <sbrkfail+0x1b0>
}
    3748:	70e6                	ld	ra,120(sp)
    374a:	7446                	ld	s0,112(sp)
    374c:	74a6                	ld	s1,104(sp)
    374e:	7906                	ld	s2,96(sp)
    3750:	69e6                	ld	s3,88(sp)
    3752:	6a46                	ld	s4,80(sp)
    3754:	6aa6                	ld	s5,72(sp)
    3756:	6b06                	ld	s6,64(sp)
    3758:	6109                	addi	sp,sp,128
    375a:	8082                	ret
    printf("%s: failed sbrk leaked memory\n", s);
    375c:	85da                	mv	a1,s6
    375e:	00007517          	auipc	a0,0x7
    3762:	7b250513          	addi	a0,a0,1970 # af10 <malloc+0x1950>
    3766:	00006097          	auipc	ra,0x6
    376a:	da2080e7          	jalr	-606(ra) # 9508 <printf>
    exit(1);
    376e:	4505                	li	a0,1
    3770:	00006097          	auipc	ra,0x6
    3774:	818080e7          	jalr	-2024(ra) # 8f88 <exit>
    printf("%s: fork failed\n", s);
    3778:	85da                	mv	a1,s6
    377a:	00007517          	auipc	a0,0x7
    377e:	a5e50513          	addi	a0,a0,-1442 # a1d8 <malloc+0xc18>
    3782:	00006097          	auipc	ra,0x6
    3786:	d86080e7          	jalr	-634(ra) # 9508 <printf>
    exit(1);
    378a:	4505                	li	a0,1
    378c:	00005097          	auipc	ra,0x5
    3790:	7fc080e7          	jalr	2044(ra) # 8f88 <exit>
    a = sbrk(0);
    3794:	4501                	li	a0,0
    3796:	00006097          	auipc	ra,0x6
    379a:	862080e7          	jalr	-1950(ra) # 8ff8 <sbrk>
    379e:	892a                	mv	s2,a0
    sbrk(10*BIG);
    37a0:	3e800537          	lui	a0,0x3e800
    37a4:	00006097          	auipc	ra,0x6
    37a8:	854080e7          	jalr	-1964(ra) # 8ff8 <sbrk>
    for (i = 0; i < 10*BIG; i += PGSIZE) {
    37ac:	87ca                	mv	a5,s2
    37ae:	3e800737          	lui	a4,0x3e800
    37b2:	993a                	add	s2,s2,a4
    37b4:	6705                	lui	a4,0x1
      n += *(a+i);
    37b6:	0007c683          	lbu	a3,0(a5) # 6400000 <__BSS_END__+0x63e1720>
    37ba:	9cb5                	addw	s1,s1,a3
    for (i = 0; i < 10*BIG; i += PGSIZE) {
    37bc:	97ba                	add	a5,a5,a4
    37be:	ff279ce3          	bne	a5,s2,37b6 <sbrkfail+0x188>
    printf("%s: allocate a lot of memory succeeded %d\n", n);
    37c2:	85a6                	mv	a1,s1
    37c4:	00007517          	auipc	a0,0x7
    37c8:	76c50513          	addi	a0,a0,1900 # af30 <malloc+0x1970>
    37cc:	00006097          	auipc	ra,0x6
    37d0:	d3c080e7          	jalr	-708(ra) # 9508 <printf>
    exit(1);
    37d4:	4505                	li	a0,1
    37d6:	00005097          	auipc	ra,0x5
    37da:	7b2080e7          	jalr	1970(ra) # 8f88 <exit>
    exit(1);
    37de:	4505                	li	a0,1
    37e0:	00005097          	auipc	ra,0x5
    37e4:	7a8080e7          	jalr	1960(ra) # 8f88 <exit>

00000000000037e8 <reparent>:
{
    37e8:	7179                	addi	sp,sp,-48
    37ea:	f406                	sd	ra,40(sp)
    37ec:	f022                	sd	s0,32(sp)
    37ee:	ec26                	sd	s1,24(sp)
    37f0:	e84a                	sd	s2,16(sp)
    37f2:	e44e                	sd	s3,8(sp)
    37f4:	e052                	sd	s4,0(sp)
    37f6:	1800                	addi	s0,sp,48
    37f8:	89aa                	mv	s3,a0
  int master_pid = getpid();
    37fa:	00005097          	auipc	ra,0x5
    37fe:	7f6080e7          	jalr	2038(ra) # 8ff0 <getpid>
    3802:	8a2a                	mv	s4,a0
    3804:	0c800913          	li	s2,200
    int pid = fork();
    3808:	00005097          	auipc	ra,0x5
    380c:	778080e7          	jalr	1912(ra) # 8f80 <fork>
    3810:	84aa                	mv	s1,a0
    if(pid < 0){
    3812:	02054263          	bltz	a0,3836 <reparent+0x4e>
    if(pid){
    3816:	cd21                	beqz	a0,386e <reparent+0x86>
      if(wait(0) != pid){
    3818:	4501                	li	a0,0
    381a:	00005097          	auipc	ra,0x5
    381e:	776080e7          	jalr	1910(ra) # 8f90 <wait>
    3822:	02951863          	bne	a0,s1,3852 <reparent+0x6a>
  for(int i = 0; i < 200; i++){
    3826:	397d                	addiw	s2,s2,-1
    3828:	fe0910e3          	bnez	s2,3808 <reparent+0x20>
  exit(0);
    382c:	4501                	li	a0,0
    382e:	00005097          	auipc	ra,0x5
    3832:	75a080e7          	jalr	1882(ra) # 8f88 <exit>
      printf("%s: fork failed\n", s);
    3836:	85ce                	mv	a1,s3
    3838:	00007517          	auipc	a0,0x7
    383c:	9a050513          	addi	a0,a0,-1632 # a1d8 <malloc+0xc18>
    3840:	00006097          	auipc	ra,0x6
    3844:	cc8080e7          	jalr	-824(ra) # 9508 <printf>
      exit(1);
    3848:	4505                	li	a0,1
    384a:	00005097          	auipc	ra,0x5
    384e:	73e080e7          	jalr	1854(ra) # 8f88 <exit>
        printf("%s: wait wrong pid\n", s);
    3852:	85ce                	mv	a1,s3
    3854:	00007517          	auipc	a0,0x7
    3858:	b0c50513          	addi	a0,a0,-1268 # a360 <malloc+0xda0>
    385c:	00006097          	auipc	ra,0x6
    3860:	cac080e7          	jalr	-852(ra) # 9508 <printf>
        exit(1);
    3864:	4505                	li	a0,1
    3866:	00005097          	auipc	ra,0x5
    386a:	722080e7          	jalr	1826(ra) # 8f88 <exit>
      int pid2 = fork();
    386e:	00005097          	auipc	ra,0x5
    3872:	712080e7          	jalr	1810(ra) # 8f80 <fork>
      if(pid2 < 0){
    3876:	00054763          	bltz	a0,3884 <reparent+0x9c>
      exit(0);
    387a:	4501                	li	a0,0
    387c:	00005097          	auipc	ra,0x5
    3880:	70c080e7          	jalr	1804(ra) # 8f88 <exit>
        kill(master_pid);
    3884:	8552                	mv	a0,s4
    3886:	00005097          	auipc	ra,0x5
    388a:	732080e7          	jalr	1842(ra) # 8fb8 <kill>
        exit(1);
    388e:	4505                	li	a0,1
    3890:	00005097          	auipc	ra,0x5
    3894:	6f8080e7          	jalr	1784(ra) # 8f88 <exit>

0000000000003898 <mem>:
{
    3898:	7139                	addi	sp,sp,-64
    389a:	fc06                	sd	ra,56(sp)
    389c:	f822                	sd	s0,48(sp)
    389e:	f426                	sd	s1,40(sp)
    38a0:	f04a                	sd	s2,32(sp)
    38a2:	ec4e                	sd	s3,24(sp)
    38a4:	0080                	addi	s0,sp,64
    38a6:	89aa                	mv	s3,a0
  if((pid = fork()) == 0){
    38a8:	00005097          	auipc	ra,0x5
    38ac:	6d8080e7          	jalr	1752(ra) # 8f80 <fork>
    m1 = 0;
    38b0:	4481                	li	s1,0
    while((m2 = malloc(10001)) != 0){
    38b2:	6909                	lui	s2,0x2
    38b4:	71190913          	addi	s2,s2,1809 # 2711 <execout+0x6f>
  if((pid = fork()) == 0){
    38b8:	c115                	beqz	a0,38dc <mem+0x44>
    wait(&xstatus);
    38ba:	fcc40513          	addi	a0,s0,-52
    38be:	00005097          	auipc	ra,0x5
    38c2:	6d2080e7          	jalr	1746(ra) # 8f90 <wait>
    if(xstatus == -1){
    38c6:	fcc42503          	lw	a0,-52(s0)
    38ca:	57fd                	li	a5,-1
    38cc:	06f50363          	beq	a0,a5,3932 <mem+0x9a>
    exit(xstatus);
    38d0:	00005097          	auipc	ra,0x5
    38d4:	6b8080e7          	jalr	1720(ra) # 8f88 <exit>
      *(char**)m2 = m1;
    38d8:	e104                	sd	s1,0(a0)
      m1 = m2;
    38da:	84aa                	mv	s1,a0
    while((m2 = malloc(10001)) != 0){
    38dc:	854a                	mv	a0,s2
    38de:	00006097          	auipc	ra,0x6
    38e2:	ce2080e7          	jalr	-798(ra) # 95c0 <malloc>
    38e6:	f96d                	bnez	a0,38d8 <mem+0x40>
    while(m1){
    38e8:	c881                	beqz	s1,38f8 <mem+0x60>
      m2 = *(char**)m1;
    38ea:	8526                	mv	a0,s1
    38ec:	6084                	ld	s1,0(s1)
      free(m1);
    38ee:	00006097          	auipc	ra,0x6
    38f2:	c50080e7          	jalr	-944(ra) # 953e <free>
    while(m1){
    38f6:	f8f5                	bnez	s1,38ea <mem+0x52>
    m1 = malloc(1024*20);
    38f8:	6515                	lui	a0,0x5
    38fa:	00006097          	auipc	ra,0x6
    38fe:	cc6080e7          	jalr	-826(ra) # 95c0 <malloc>
    if(m1 == 0){
    3902:	c911                	beqz	a0,3916 <mem+0x7e>
    free(m1);
    3904:	00006097          	auipc	ra,0x6
    3908:	c3a080e7          	jalr	-966(ra) # 953e <free>
    exit(0);
    390c:	4501                	li	a0,0
    390e:	00005097          	auipc	ra,0x5
    3912:	67a080e7          	jalr	1658(ra) # 8f88 <exit>
      printf("couldn't allocate mem?!!\n", s);
    3916:	85ce                	mv	a1,s3
    3918:	00007517          	auipc	a0,0x7
    391c:	64850513          	addi	a0,a0,1608 # af60 <malloc+0x19a0>
    3920:	00006097          	auipc	ra,0x6
    3924:	be8080e7          	jalr	-1048(ra) # 9508 <printf>
      exit(1);
    3928:	4505                	li	a0,1
    392a:	00005097          	auipc	ra,0x5
    392e:	65e080e7          	jalr	1630(ra) # 8f88 <exit>
      exit(0);
    3932:	4501                	li	a0,0
    3934:	00005097          	auipc	ra,0x5
    3938:	654080e7          	jalr	1620(ra) # 8f88 <exit>

000000000000393c <sharedfd>:
{
    393c:	7159                	addi	sp,sp,-112
    393e:	f486                	sd	ra,104(sp)
    3940:	f0a2                	sd	s0,96(sp)
    3942:	eca6                	sd	s1,88(sp)
    3944:	e8ca                	sd	s2,80(sp)
    3946:	e4ce                	sd	s3,72(sp)
    3948:	e0d2                	sd	s4,64(sp)
    394a:	fc56                	sd	s5,56(sp)
    394c:	f85a                	sd	s6,48(sp)
    394e:	f45e                	sd	s7,40(sp)
    3950:	f062                	sd	s8,32(sp)
    3952:	1880                	addi	s0,sp,112
    3954:	8aaa                	mv	s5,a0
  remove("sharedfd");
    3956:	00007517          	auipc	a0,0x7
    395a:	62a50513          	addi	a0,a0,1578 # af80 <malloc+0x19c0>
    395e:	00005097          	auipc	ra,0x5
    3962:	6d2080e7          	jalr	1746(ra) # 9030 <remove>
  fd = open("sharedfd", O_CREATE|O_RDWR);
    3966:	20200593          	li	a1,514
    396a:	00007517          	auipc	a0,0x7
    396e:	61650513          	addi	a0,a0,1558 # af80 <malloc+0x19c0>
    3972:	00005097          	auipc	ra,0x5
    3976:	656080e7          	jalr	1622(ra) # 8fc8 <open>
  if(fd < 0){
    397a:	04054b63          	bltz	a0,39d0 <sharedfd+0x94>
    397e:	892a                	mv	s2,a0
  pid = fork();
    3980:	00005097          	auipc	ra,0x5
